EXPORTS
    _ZN3SPK10SPKFactory10destroyAllEv @1
    _ZN3SPK10SPKFactory10findByNameERKSs @2
    _ZN3SPK10SPKFactory11getInstanceEv @3
    _ZN3SPK10SPKFactory11traceObjectERKSt17_Rb_tree_iteratorISt4pairIKmPNS_12RegisterableEEEb @4
    _ZN3SPK10SPKFactory14registerObjectEPNS_12RegisterableE @5
    _ZN3SPK10SPKFactory15destroyInstanceEv @6
    _ZN3SPK10SPKFactory16unregisterObjectERSt17_Rb_tree_iteratorISt4pairIKmPNS_12RegisterableEEEb @7
    _ZN3SPK10SPKFactory16unregisterObjectEmb @8
    _ZN3SPK10SPKFactory3getEm @9
    _ZN3SPK10SPKFactory4copyEPKNS_12RegisterableE @10
    _ZN3SPK10SPKFactory4copyEm @11
    _ZN3SPK10SPKFactory5traceEPKNS_12RegisterableE @12
    _ZN3SPK10SPKFactory5traceEm @13
    _ZN3SPK10SPKFactory6createERKNS_12RegisterableE @14
    _ZN3SPK10SPKFactory7destroyEPNS_12RegisterableEb @15
    _ZN3SPK10SPKFactory7destroyEmb @16
    _ZN3SPK10SPKFactory8instanceE @17 DATA
    _ZN3SPK10SPKFactory8traceAllEv @18
    _ZN3SPK10SPKFactory9currentIDE @19 DATA
    _ZN3SPK10getSqrDistERKNS_8Vector3DES2_ @20
    _ZN3SPK10randomSeedE @21 DATA
    _ZN3SPK11LinearForce20innerUpdateTransformEv @22
    _ZN3SPK11LinearForceC1EPNS_4ZoneENS_15ModifierTriggerERKNS_8Vector3DENS_11ForceFactorENS_10ModelParamE @23
    _ZN3SPK11LinearForceC2EPNS_4ZoneENS_15ModifierTriggerERKNS_8Vector3DENS_11ForceFactorENS_10ModelParamE @24
    _ZN3SPK11defaultZoneE @25 DATA
    _ZN3SPK12Interpolator11interpolateERKNS_8ParticleENS_10ModelParamEfff @26
    _ZN3SPK12Interpolator12COMPUTE_X_FNE @27 DATA
    _ZN3SPK12Interpolator16generateSinCurveEffffffjj @28
    _ZN3SPK12Interpolator17generatePolyCurveEffffffj @29
    _ZN3SPK12InterpolatorC1Ev @30
    _ZN3SPK12InterpolatorC2Ev @31
    _ZN3SPK12Registerable10findByNameERKSs @32
    _ZN3SPK12Registerable10onRegisterEv @33
    _ZN3SPK12Registerable12copyChildrenERKS0_b @34
    _ZN3SPK12Registerable12destroyChildEPS0_b @35
    _ZN3SPK12Registerable12onUnregisterEv @36
    _ZN3SPK12Registerable13registerChildEPS0_b @37
    _ZN3SPK12Registerable14registerObjectEPS0_b @38
    _ZN3SPK12Registerable15destroyChildrenEb @39
    _ZN3SPK12Registerable16registerChildrenEb @40
    _ZN3SPK12Registerable9copyChildEPS0_b @41
    _ZN3SPK12RegisterableC1ERKS0_ @42
    _ZN3SPK12RegisterableC1Ev @43
    _ZN3SPK12RegisterableC2ERKS0_ @44
    _ZN3SPK12RegisterableC2Ev @45
    _ZN3SPK12RegisterableD0Ev @46
    _ZN3SPK12RegisterableD1Ev @47
    _ZN3SPK12RegisterableD2Ev @48
    _ZN3SPK12crossProductERKNS_8Vector3DES2_ @49
    _ZN3SPK12crossProductERKNS_8Vector3DES2_RS0_ @50
    _ZN3SPK12defaultModelE @51 DATA
    _ZN3SPK13BufferHandler12checkBuffersERKNS_5GroupE @52
    _ZN3SPK13BufferHandler13createBuffersERKNS_5GroupE @53
    _ZN3SPK13BufferHandler14bufferCreationE @54 DATA
    _ZN3SPK13BufferHandler14destroyBuffersERKNS_5GroupE @55
    _ZN3SPK13BufferHandler14prepareBuffersERKNS_5GroupE @56
    _ZN3SPK13BufferHandler21enableBuffersCreationEb @57
    _ZN3SPK13BufferHandler24isBuffersCreationEnabledEv @58
    _ZN3SPK13BufferHandlerD0Ev @59
    _ZN3SPK13BufferHandlerD1Ev @60
    _ZN3SPK13ModifierGroup10findByNameERKSs @61
    _ZN3SPK13ModifierGroup11addModifierEPNS_8ModifierE @62
    _ZN3SPK13ModifierGroup12checkBuffersERKNS_5GroupE @63
    _ZN3SPK13ModifierGroup12copyChildrenERKS0_b @64
    _ZN3SPK13ModifierGroup13createBuffersERKNS_5GroupE @65
    _ZN3SPK13ModifierGroup14destroyBuffersERKNS_5GroupE @66
    _ZN3SPK13ModifierGroup14removeModifierEPKNS_8ModifierE @67
    _ZN3SPK13ModifierGroup15destroyChildrenEb @68
    _ZN3SPK13ModifierGroup16registerChildrenEb @69
    _ZN3SPK13ModifierGroupC1EPNS_4ZoneENS_15ModifierTriggerE @70
    _ZN3SPK13ModifierGroupC2EPNS_4ZoneENS_15ModifierTriggerE @71
    _ZN3SPK13NormalEmitter10findByNameERKSs @72
    _ZN3SPK13NormalEmitter12copyChildrenERKS0_b @73
    _ZN3SPK13NormalEmitter13setNormalZoneEPNS_4ZoneE @74
    _ZN3SPK13NormalEmitter15destroyChildrenEb @75
    _ZN3SPK13NormalEmitter16registerChildrenEb @76
    _ZN3SPK13NormalEmitterC1EPNS_4ZoneEb @77
    _ZN3SPK13NormalEmitterC2EPNS_4ZoneEb @78
    _ZN3SPK13Transformable12transformDirERNS_8Vector3DERKS1_ @79
    _ZN3SPK13Transformable12transformPosERNS_8Vector3DERKS1_ @80
    _ZN3SPK13Transformable14setTransformNCEPKf @81
    _ZN3SPK13Transformable15updateTransformEPKS0_ @82
    _ZN3SPK13Transformable20innerUpdateTransformEv @83
    _ZN3SPK13Transformable20setTransformPositionERKNS_8Vector3DE @84
    _ZN3SPK13Transformable23setTransformOrientationENS_8Vector3DEf @85
    _ZN3SPK13Transformable24propagateUpdateTransformEv @86
    _ZN3SPK13Transformable24setTransformOrientationXEf @87
    _ZN3SPK13Transformable24setTransformOrientationYEf @88
    _ZN3SPK13Transformable24setTransformOrientationZEf @89
    _ZN3SPK13Transformable25setTransformOrientationLHENS_8Vector3DES1_ @90
    _ZN3SPK13Transformable25setTransformOrientationRHENS_8Vector3DES1_ @91
    _ZN3SPK13Transformable8IDENTITYE @92 DATA
    _ZN3SPK13TransformableC1ERKS0_ @93
    _ZN3SPK13TransformableC1Ev @94
    _ZN3SPK13TransformableC2ERKS0_ @95
    _ZN3SPK13TransformableC2Ev @96
    _ZN3SPK13TransformableD0Ev @97
    _ZN3SPK13TransformableD1Ev @98
    _ZN3SPK14SphericEmitter12setDirectionERKNS_8Vector3DE @99
    _ZN3SPK14SphericEmitter13computeMatrixEv @100
    _ZN3SPK14SphericEmitter20innerUpdateTransformEv @101
    _ZN3SPK14SphericEmitter2PIE @102 DATA
    _ZN3SPK14SphericEmitter9setAnglesEff @103
    _ZN3SPK14SphericEmitterC1ERKNS_8Vector3DEff @104
    _ZN3SPK14SphericEmitterC2ERKNS_8Vector3DEff @105
    _ZN3SPK15StraightEmitter12setDirectionERKNS_8Vector3DE @106
    _ZN3SPK15StraightEmitter20innerUpdateTransformEv @107
    _ZN3SPK15StraightEmitterC1ERKNS_8Vector3DE @108
    _ZN3SPK15StraightEmitterC2ERKNS_8Vector3DE @109
    _ZN3SPK21QuadRendererInterface16setTexturingModeENS_13TexturingModeE @110
    _ZN3SPK21QuadRendererInterface18setAtlasDimensionsEjj @111
    _ZN3SPK21QuadRendererInterfaceC1Eff @112
    _ZN3SPK21QuadRendererInterfaceC2Eff @113
    _ZN3SPK21QuadRendererInterfaceD0Ev @114
    _ZN3SPK21QuadRendererInterfaceD1Ev @115
    _ZN3SPK27Oriented3DRendererInterface14setOrientationENS_15LookOrientationENS_13UpOrientationENS_10LockedAxisE @116
    _ZN3SPK27Oriented3DRendererInterface14setOrientationENS_17OrientationPresetE @117
    _ZN3SPK27Oriented3DRendererInterfaceC1Ev @118
    _ZN3SPK27Oriented3DRendererInterfaceC2Ev @119
    _ZN3SPK27Oriented3DRendererInterfaceD0Ev @120
    _ZN3SPK27Oriented3DRendererInterfaceD1Ev @121
    _ZN3SPK4Line11setPositionERKNS_8Vector3DE @122
    _ZN3SPK4Line20innerUpdateTransformEv @123
    _ZN3SPK4Line9pushBoundERKNS_8Vector3DE @124
    _ZN3SPK4Line9setBoundsERKNS_8Vector3DES3_ @125
    _ZN3SPK4LineC1ERKNS_8Vector3DES3_ @126
    _ZN3SPK4LineC2ERKNS_8Vector3DES3_ @127
    _ZN3SPK4Ring20innerUpdateTransformEv @128
    _ZN3SPK4RingC1ERKNS_8Vector3DES3_ff @129
    _ZN3SPK4RingC2ERKNS_8Vector3DES3_ff @130
    _ZN3SPK4Zone11setPositionERKNS_8Vector3DE @131
    _ZN3SPK4Zone19APPROXIMATION_VALUEE @132 DATA
    _ZN3SPK4Zone20innerUpdateTransformEv @133
    _ZN3SPK4ZoneC1ERKNS_8Vector3DE @134
    _ZN3SPK4ZoneC2ERKNS_8Vector3DE @135
    _ZN3SPK4ZoneD0Ev @136
    _ZN3SPK4ZoneD1Ev @137
    _ZN3SPK4ZoneD2Ev @138
    _ZN3SPK5AABox12setDimensionERKNS_8Vector3DE @139
    _ZN3SPK5AABoxC1ERKNS_8Vector3DES3_ @140
    _ZN3SPK5AABoxC2ERKNS_8Vector3DES3_ @141
    _ZN3SPK5Group10addEmitterEPNS_7EmitterE @142
    _ZN3SPK5Group10findByNameERKSs @143
    _ZN3SPK5Group10reallocateEj @144
    _ZN3SPK5Group10updateAABBERKNS_8ParticleE @145
    _ZN3SPK5Group11addModifierEPNS_8ModifierE @146
    _ZN3SPK5Group11computeAABBEv @147
    _ZN3SPK5Group11setRendererEPNS_8RendererE @148
    _ZN3SPK5Group12addParticlesEPKNS_4ZoneEPNS_7EmitterEfb @149
    _ZN3SPK5Group12addParticlesEPNS_7EmitterEf @150
    _ZN3SPK5Group12addParticlesERKNS_8Vector3DEPNS_7EmitterEf @151
    _ZN3SPK5Group12addParticlesERKNS_8Vector3DES3_PNS_7EmitterEff @152
    _ZN3SPK5Group12addParticlesERKNS_8Vector3DES3_S3_ff @153
    _ZN3SPK5Group12addParticlesEjPNS_7EmitterE @154
    _ZN3SPK5Group12addParticlesEjRKNS_8Vector3DES3_PKNS_4ZoneEPNS_7EmitterEb @155
    _ZN3SPK5Group12copyChildrenERKS0_b @156
    _ZN3SPK5Group12pushParticleERN9__gnu_cxx17__normal_iteratorIPNS0_11EmitterDataESt6vectorIS3_SaIS3_EEEERj @157
    _ZN3SPK5Group13removeEmitterEPNS_7EmitterE @158
    _ZN3SPK5Group13sortParticlesEii @159
    _ZN3SPK5Group13sortParticlesEv @160
    _ZN3SPK5Group14launchParticleERNS_8ParticleERN9__gnu_cxx17__normal_iteratorIPNS0_11EmitterDataESt6vectorIS5_SaIS5_EEEERj @161
    _ZN3SPK5Group14removeModifierEPNS_8ModifierE @162
    _ZN3SPK5Group15destroyChildrenEb @163
    _ZN3SPK5Group16bufferManagementE @164 DATA
    _ZN3SPK5Group16computeDistancesEv @165
    _ZN3SPK5Group16registerChildrenEb @166
    _ZN3SPK5Group19flushAddedParticlesEv @167
    _ZN3SPK5Group19popNextManualAddingERj @168
    _ZN3SPK5Group23enableBuffersManagementEb @169
    _ZN3SPK5Group24propagateUpdateTransformEv @170
    _ZN3SPK5Group26isBuffersManagementEnabledEv @171
    _ZN3SPK5Group5emptyEv @172
    _ZN3SPK5Group6renderEv @173
    _ZN3SPK5Group6updateEf @174
    _ZN3SPK5GroupC1EPNS_5ModelEj @175
    _ZN3SPK5GroupC1ERKS0_ @176
    _ZN3SPK5GroupC2EPNS_5ModelEj @177
    _ZN3SPK5GroupC2ERKS0_ @178
    _ZN3SPK5GroupD0Ev @179
    _ZN3SPK5GroupD1Ev @180
    _ZN3SPK5GroupD2Ev @181
    _ZN3SPK5Model14DEFAULT_VALUESE @182 DATA
    _ZN3SPK5Model15getDefaultValueENS_10ModelParamE @183
    _ZN3SPK5Model8setParamENS_10ModelParamEf @184
    _ZN3SPK5Model8setParamENS_10ModelParamEff @185
    _ZN3SPK5Model8setParamENS_10ModelParamEffff @186
    _ZN3SPK5ModelC1ERKS0_ @187
    _ZN3SPK5ModelC1Eiiii @188
    _ZN3SPK5ModelC2ERKS0_ @189
    _ZN3SPK5ModelC2Eiiii @190
    _ZN3SPK5ModelD0Ev @191
    _ZN3SPK5ModelD1Ev @192
    _ZN3SPK5ModelD2Ev @193
    _ZN3SPK5NO_IDE @194 DATA
    _ZN3SPK5Plane20innerUpdateTransformEv @195
    _ZN3SPK5PlaneC1ERKNS_8Vector3DES3_ @196
    _ZN3SPK5PlaneC2ERKNS_8Vector3DES3_ @197
    _ZN3SPK5PointC1ERKNS_8Vector3DE @198
    _ZN3SPK5PointC2ERKNS_8Vector3DE @199
    _ZN3SPK6SphereC1ERKNS_8Vector3DEf @200
    _ZN3SPK6SphereC2ERKNS_8Vector3DEf @201
    _ZN3SPK6System10findByNameERKSs @202
    _ZN3SPK6System11computeAABBEv @203
    _ZN3SPK6System11getStepModeEv @204
    _ZN3SPK6System11innerUpdateEf @205
    _ZN3SPK6System11removeGroupEPNS_5GroupE @206
    _ZN3SPK6System11useRealStepEv @207
    _ZN3SPK6System12constantStepE @208 DATA
    _ZN3SPK6System12copyChildrenERKS0_b @209
    _ZN3SPK6System12setClampStepEbf @210
    _ZN3SPK6System13sortParticlesEv @211
    _ZN3SPK6System14cameraPositionE @212 DATA
    _ZN3SPK6System15destroyChildrenEb @213
    _ZN3SPK6System15useAdaptiveStepEff @214
    _ZN3SPK6System15useConstantStepEf @215
    _ZN3SPK6System16clampStepEnabledE @216 DATA
    _ZN3SPK6System16computeDistancesEv @217
    _ZN3SPK6System16registerChildrenEb @218
    _ZN3SPK6System17getCameraPositionEv @219
    _ZN3SPK6System17setCameraPositionERKNS_8Vector3DE @220
    _ZN3SPK6System18computeNbParticlesEv @221
    _ZN3SPK6System24propagateUpdateTransformEv @222
    _ZN3SPK6System4growEff @223
    _ZN3SPK6System5emptyEv @224
    _ZN3SPK6System6updateEf @225
    _ZN3SPK6System7maxStepE @226 DATA
    _ZN3SPK6System7minStepE @227 DATA
    _ZN3SPK6System8addGroupEPNS_5GroupE @228
    _ZN3SPK6System8stepModeE @229 DATA
    _ZN3SPK6System9clampStepE @230 DATA
    _ZN3SPK6SystemC1Ev @231
    _ZN3SPK6SystemC2Ev @232
    _ZN3SPK6SystemD0Ev @233
    _ZN3SPK6SystemD1Ev @234
    _ZN3SPK6Vortex20innerUpdateTransformEv @235
    _ZN3SPK6VortexC1ERKNS_8Vector3DES3_ff @236
    _ZN3SPK6VortexC2ERKNS_8Vector3DES3_ff @237
    _ZN3SPK7Emitter10changeFlowEf @238
    _ZN3SPK7Emitter10changeTankEi @239
    _ZN3SPK7Emitter10findByNameERKSs @240
    _ZN3SPK7Emitter12copyChildrenERKS0_b @241
    _ZN3SPK7Emitter12updateNumberEf @242
    _ZN3SPK7Emitter15destroyChildrenEb @243
    _ZN3SPK7Emitter16registerChildrenEb @244
    _ZN3SPK7Emitter24propagateUpdateTransformEv @245
    _ZN3SPK7Emitter7setZoneEPNS_4ZoneEb @246
    _ZN3SPK7EmitterC1Ev @247
    _ZN3SPK7EmitterC2Ev @248
    _ZN3SPK7EmitterD0Ev @249
    _ZN3SPK7EmitterD1Ev @250
    _ZN3SPK7EmitterD2Ev @251
    _ZN3SPK7NO_NAMEE @252 DATA
    _ZN3SPK7getDistERKNS_8Vector3DES2_ @253
    _ZN3SPK8Modifier10findByNameERKSs @254
    _ZN3SPK8Modifier10setTriggerENS_15ModifierTriggerE @255
    _ZN3SPK8Modifier12beginProcessERNS_5GroupE @256
    _ZN3SPK8Modifier12copyChildrenERKS0_b @257
    _ZN3SPK8Modifier12intersectionE @258 DATA
    _ZN3SPK8Modifier15destroyChildrenEb @259
    _ZN3SPK8Modifier16registerChildrenEb @260
    _ZN3SPK8Modifier24propagateUpdateTransformEv @261
    _ZN3SPK8Modifier6normalE @262 DATA
    _ZN3SPK8Modifier7setZoneEPNS_4ZoneEb @263
    _ZN3SPK8ModifierC1EiNS_15ModifierTriggerEbbPNS_4ZoneE @264
    _ZN3SPK8ModifierC2EiNS_15ModifierTriggerEbbPNS_4ZoneE @265
    _ZN3SPK8ModifierD0Ev @266
    _ZN3SPK8ModifierD1Ev @267
    _ZN3SPK8ModifierD2Ev @268
    _ZN3SPK8ObstacleC1EPNS_4ZoneENS_15ModifierTriggerEff @269
    _ZN3SPK8ObstacleC2EPNS_4ZoneENS_15ModifierTriggerEff @270
    _ZN3SPK8Particle14computeSqrDistEv @271
    _ZN3SPK8Particle18setParamFinalValueENS_10ModelParamEf @272
    _ZN3SPK8Particle20setParamCurrentValueENS_10ModelParamEf @273
    _ZN3SPK8Particle21changeParamFinalValueENS_10ModelParamEf @274
    _ZN3SPK8Particle21interpolateParametersEv @275
    _ZN3SPK8Particle23changeParamCurrentValueENS_10ModelParamEf @276
    _ZN3SPK8Particle4initEv @277
    _ZN3SPK8Particle6updateEf @278
    _ZN3SPK8ParticleC1EPNS_5GroupEj @279
    _ZN3SPK8ParticleC2EPNS_5GroupEj @280
    _ZN3SPK8Renderer19enableRenderingHintENS_13RenderingHintEb @281
    _ZN3SPK8Renderer21setAlphaTestThresholdEf @282
    _ZN3SPK8RendererC1Ev @283
    _ZN3SPK8RendererC2Ev @284
    _ZN3SPK8RendererD0Ev @285
    _ZN3SPK8RendererD1Ev @286
    _ZN3SPK8RendererD2Ev @287
    _ZN3SPK8Vector3D12crossProductERKS0_ @288
    _ZN3SPK8Vector3D3absEv @289
    _ZN3SPK8Vector3D3setEfff @290
    _ZN3SPK8Vector3D6revertEv @291
    _ZN3SPK8Vector3D9normalizeEv @292
    _ZN3SPK8Vector3DC1Efff @293
    _ZN3SPK8Vector3DC2Efff @294
    _ZN3SPK8Vector3DdVEf @295
    _ZN3SPK8Vector3DixEj @296
    _ZN3SPK8Vector3DmIERKS0_ @297
    _ZN3SPK8Vector3DmIEf @298
    _ZN3SPK8Vector3DmLEf @299
    _ZN3SPK8Vector3DpLERKS0_ @300
    _ZN3SPK8Vector3DpLEf @301
    _ZN3SPK9CollisionC1Eff @302
    _ZN3SPK9CollisionC2Eff @303
    _ZN3SPK9DestroyerC1EPNS_4ZoneENS_15ModifierTriggerE @304
    _ZN3SPK9DestroyerC2EPNS_4ZoneENS_15ModifierTriggerE @305
    _ZN3SPK9PointMass20innerUpdateTransformEv @306
    _ZN3SPK9PointMassC1EPNS_4ZoneENS_15ModifierTriggerEff @307
    _ZN3SPK9PointMassC2EPNS_4ZoneENS_15ModifierTriggerEff @308
    _ZNK3SPK11LinearForce12getClassNameEv @309
    _ZNK3SPK11LinearForce5cloneEb @310
    _ZNK3SPK11LinearForce6modifyERNS_8ParticleEf @311
    _ZNK3SPK12Interpolator11computeXAgeERKNS_8ParticleE @312
    _ZNK3SPK12Interpolator13computeXParamERKNS_8ParticleE @313
    _ZNK3SPK12Interpolator16computeXLifeTimeERKNS_8ParticleE @314
    _ZNK3SPK12Interpolator16computeXVelocityERKNS_8ParticleE @315
    _ZNK3SPK13ModifierGroup12getClassNameEv @316
    _ZNK3SPK13ModifierGroup15modifyWrongSideERNS_8ParticleEb @317
    _ZNK3SPK13ModifierGroup5cloneEb @318
    _ZNK3SPK13ModifierGroup6modifyERNS_8ParticleEf @319
    _ZNK3SPK13NormalEmitter12getClassNameEv @320
    _ZNK3SPK13NormalEmitter16generateVelocityERNS_8ParticleEf @321
    _ZNK3SPK13NormalEmitter5cloneEb @322
    _ZNK3SPK13RandomEmitter12getClassNameEv @323
    _ZNK3SPK13RandomEmitter16generateVelocityERNS_8ParticleEf @324
    _ZNK3SPK13RandomEmitter5cloneEb @325
    _ZNK3SPK14SphericEmitter12getClassNameEv @326
    _ZNK3SPK14SphericEmitter16generateVelocityERNS_8ParticleEf @327
    _ZNK3SPK14SphericEmitter5cloneEb @328
    _ZNK3SPK15StraightEmitter12getClassNameEv @329
    _ZNK3SPK15StraightEmitter16generateVelocityERNS_8ParticleEf @330
    _ZNK3SPK15StraightEmitter5cloneEb @331
    _ZNK3SPK4Line10intersectsERKNS_8Vector3DES3_PS1_S4_ @332
    _ZNK3SPK4Line12getClassNameEv @333
    _ZNK3SPK4Line12moveAtBorderERNS_8Vector3DEb @334
    _ZNK3SPK4Line13computeNormalERKNS_8Vector3DE @335
    _ZNK3SPK4Line16generatePositionERNS_8ParticleEb @336
    _ZNK3SPK4Line5cloneEb @337
    _ZNK3SPK4Line8containsERKNS_8Vector3DE @338
    _ZNK3SPK4Ring10intersectsERKNS_8Vector3DES3_PS1_S4_ @339
    _ZNK3SPK4Ring12getClassNameEv @340
    _ZNK3SPK4Ring12moveAtBorderERNS_8Vector3DEb @341
    _ZNK3SPK4Ring13computeNormalERKNS_8Vector3DE @342
    _ZNK3SPK4Ring16generatePositionERNS_8ParticleEb @343
    _ZNK3SPK4Ring5cloneEb @344
    _ZNK3SPK4Ring8containsERKNS_8Vector3DE @345
    _ZNK3SPK5AABox10intersectsERKNS_8Vector3DES3_PS1_S4_ @346
    _ZNK3SPK5AABox12getClassNameEv @347
    _ZNK3SPK5AABox12moveAtBorderERNS_8Vector3DEb @348
    _ZNK3SPK5AABox13computeNormalERKNS_8Vector3DE @349
    _ZNK3SPK5AABox16generatePositionERNS_8ParticleEb @350
    _ZNK3SPK5AABox5cloneEb @351
    _ZNK3SPK5AABox8containsERKNS_8Vector3DE @352
    _ZNK3SPK5Group12createBufferERKSsRKNS_13BufferCreatorEjb @353
    _ZNK3SPK5Group12getClassNameEv @354
    _ZNK3SPK5Group13destroyBufferERKSs @355
    _ZNK3SPK5Group14getParamStrideEv @356
    _ZNK3SPK5Group15getParamAddressENS_10ModelParamE @357
    _ZNK3SPK5Group17destroyAllBuffersEv @358
    _ZNK3SPK5Group5cloneEb @359
    _ZNK3SPK5Group9getBufferERKSs @360
    _ZNK3SPK5Group9getBufferERKSsj @361
    _ZNK3SPK5Model11getNbValuesENS_10ModelParamE @362
    _ZNK3SPK5Model12getClassNameEv @363
    _ZNK3SPK5Model13getParamValueENS_10ModelParamEj @364
    _ZNK3SPK5Model5cloneEb @365
    _ZNK3SPK5Plane10intersectsERKNS_8Vector3DES3_PS1_S4_ @366
    _ZNK3SPK5Plane12getClassNameEv @367
    _ZNK3SPK5Plane12moveAtBorderERNS_8Vector3DEb @368
    _ZNK3SPK5Plane13computeNormalERKNS_8Vector3DE @369
    _ZNK3SPK5Plane16generatePositionERNS_8ParticleEb @370
    _ZNK3SPK5Plane5cloneEb @371
    _ZNK3SPK5Plane8containsERKNS_8Vector3DE @372
    _ZNK3SPK5Point10intersectsERKNS_8Vector3DES3_PS1_S4_ @373
    _ZNK3SPK5Point12getClassNameEv @374
    _ZNK3SPK5Point12moveAtBorderERNS_8Vector3DEb @375
    _ZNK3SPK5Point13computeNormalERKNS_8Vector3DE @376
    _ZNK3SPK5Point16generatePositionERNS_8ParticleEb @377
    _ZNK3SPK5Point5cloneEb @378
    _ZNK3SPK5Point8containsERKNS_8Vector3DE @379
    _ZNK3SPK6Sphere10intersectsERKNS_8Vector3DES3_PS1_S4_ @380
    _ZNK3SPK6Sphere12getClassNameEv @381
    _ZNK3SPK6Sphere12moveAtBorderERNS_8Vector3DEb @382
    _ZNK3SPK6Sphere13computeNormalERKNS_8Vector3DE @383
    _ZNK3SPK6Sphere16generatePositionERNS_8ParticleEb @384
    _ZNK3SPK6Sphere5cloneEb @385
    _ZNK3SPK6Sphere8containsERKNS_8Vector3DE @386
    _ZNK3SPK6System12getClassNameEv @387
    _ZNK3SPK6System5cloneEb @388
    _ZNK3SPK6System6renderEv @389
    _ZNK3SPK6Vortex12getClassNameEv @390
    _ZNK3SPK6Vortex5cloneEb @391
    _ZNK3SPK6Vortex6modifyERNS_8ParticleEf @392
    _ZNK3SPK8Modifier15modifyWrongSideERNS_8ParticleEb @393
    _ZNK3SPK8Obstacle12getClassNameEv @394
    _ZNK3SPK8Obstacle15modifyWrongSideERNS_8ParticleEb @395
    _ZNK3SPK8Obstacle5cloneEb @396
    _ZNK3SPK8Obstacle6modifyERNS_8ParticleEf @397
    _ZNK3SPK8Particle18getParamFinalValueENS_10ModelParamE @398
    _ZNK3SPK8Particle20getParamCurrentValueENS_10ModelParamE @399
    _ZNK3SPK8Particle8getModelEv @400
    _ZNK3SPK8Renderer22isRenderingHintEnabledENS_13RenderingHintE @401
    _ZNK3SPK8Vector3D7getNormEv @402
    _ZNK3SPK8Vector3DixEj @403
    _ZNK3SPK9Collision12getClassNameEv @404
    _ZNK3SPK9Collision5cloneEb @405
    _ZNK3SPK9Collision6modifyERNS_8ParticleEf @406
    _ZNK3SPK9Destroyer12getClassNameEv @407
    _ZNK3SPK9Destroyer15modifyWrongSideERNS_8ParticleEb @408
    _ZNK3SPK9Destroyer5cloneEb @409
    _ZNK3SPK9Destroyer6modifyERNS_8ParticleEf @410
    _ZNK3SPK9PointMass12getClassNameEv @411
    _ZNK3SPK9PointMass5cloneEb @412
    _ZNK3SPK9PointMass6modifyERNS_8ParticleEf @413
    _ZTVN3SPK11LinearForceE @414 DATA
    _ZTVN3SPK12RegisterableE @415 DATA
    _ZTVN3SPK13BufferHandlerE @416 DATA
    _ZTVN3SPK13ModifierGroupE @417 DATA
    _ZTVN3SPK13NormalEmitterE @418 DATA
    _ZTVN3SPK13RandomEmitterE @419 DATA
    _ZTVN3SPK13TransformableE @420 DATA
    _ZTVN3SPK14SphericEmitterE @421 DATA
    _ZTVN3SPK15StraightEmitterE @422 DATA
    _ZTVN3SPK21QuadRendererInterfaceE @423 DATA
    _ZTVN3SPK27Oriented3DRendererInterfaceE @424 DATA
    _ZTVN3SPK4LineE @425 DATA
    _ZTVN3SPK4RingE @426 DATA
    _ZTVN3SPK4ZoneE @427 DATA
    _ZTVN3SPK5AABoxE @428 DATA
    _ZTVN3SPK5GroupE @429 DATA
    _ZTVN3SPK5ModelE @430 DATA
    _ZTVN3SPK5PlaneE @431 DATA
    _ZTVN3SPK5PointE @432 DATA
    _ZTVN3SPK6SphereE @433 DATA
    _ZTVN3SPK6SystemE @434 DATA
    _ZTVN3SPK6VortexE @435 DATA
    _ZTVN3SPK7EmitterE @436 DATA
    _ZTVN3SPK8ModifierE @437 DATA
    _ZTVN3SPK8ObstacleE @438 DATA
    _ZTVN3SPK8RendererE @439 DATA
    _ZTVN3SPK9CollisionE @440 DATA
    _ZTVN3SPK9DestroyerE @441 DATA
    _ZTVN3SPK9PointMassE @442 DATA
    _ZThn172_N3SPK11LinearForceD0Ev @443
    _ZThn172_N3SPK11LinearForceD1Ev @444
    _ZThn172_N3SPK13ModifierGroup12checkBuffersERKNS_5GroupE @445
    _ZThn172_N3SPK13ModifierGroup13createBuffersERKNS_5GroupE @446
    _ZThn172_N3SPK13ModifierGroup14destroyBuffersERKNS_5GroupE @447
    _ZThn172_N3SPK13ModifierGroupD0Ev @448
    _ZThn172_N3SPK13ModifierGroupD1Ev @449
    _ZThn172_N3SPK6VortexD0Ev @450
    _ZThn172_N3SPK6VortexD1Ev @451
    _ZThn172_N3SPK8ModifierD0Ev @452
    _ZThn172_N3SPK8ModifierD1Ev @453
    _ZThn172_N3SPK8ObstacleD0Ev @454
    _ZThn172_N3SPK8ObstacleD1Ev @455
    _ZThn172_N3SPK9CollisionD0Ev @456
    _ZThn172_N3SPK9CollisionD1Ev @457
    _ZThn172_N3SPK9DestroyerD0Ev @458
    _ZThn172_N3SPK9DestroyerD1Ev @459
    _ZThn172_N3SPK9PointMassD0Ev @460
    _ZThn172_N3SPK9PointMassD1Ev @461
    _ZThn20_N3SPK11LinearForce20innerUpdateTransformEv @462
    _ZThn20_N3SPK11LinearForceD0Ev @463
    _ZThn20_N3SPK11LinearForceD1Ev @464
    _ZThn20_N3SPK13ModifierGroupD0Ev @465
    _ZThn20_N3SPK13ModifierGroupD1Ev @466
    _ZThn20_N3SPK13NormalEmitterD0Ev @467
    _ZThn20_N3SPK13NormalEmitterD1Ev @468
    _ZThn20_N3SPK13RandomEmitterD0Ev @469
    _ZThn20_N3SPK13RandomEmitterD1Ev @470
    _ZThn20_N3SPK14SphericEmitter20innerUpdateTransformEv @471
    _ZThn20_N3SPK14SphericEmitterD0Ev @472
    _ZThn20_N3SPK14SphericEmitterD1Ev @473
    _ZThn20_N3SPK15StraightEmitter20innerUpdateTransformEv @474
    _ZThn20_N3SPK15StraightEmitterD0Ev @475
    _ZThn20_N3SPK15StraightEmitterD1Ev @476
    _ZThn20_N3SPK4Line20innerUpdateTransformEv @477
    _ZThn20_N3SPK4LineD0Ev @478
    _ZThn20_N3SPK4LineD1Ev @479
    _ZThn20_N3SPK4Ring20innerUpdateTransformEv @480
    _ZThn20_N3SPK4RingD0Ev @481
    _ZThn20_N3SPK4RingD1Ev @482
    _ZThn20_N3SPK4Zone20innerUpdateTransformEv @483
    _ZThn20_N3SPK4ZoneD0Ev @484
    _ZThn20_N3SPK4ZoneD1Ev @485
    _ZThn20_N3SPK5AABoxD0Ev @486
    _ZThn20_N3SPK5AABoxD1Ev @487
    _ZThn20_N3SPK5Group24propagateUpdateTransformEv @488
    _ZThn20_N3SPK5GroupD0Ev @489
    _ZThn20_N3SPK5GroupD1Ev @490
    _ZThn20_N3SPK5Plane20innerUpdateTransformEv @491
    _ZThn20_N3SPK5PlaneD0Ev @492
    _ZThn20_N3SPK5PlaneD1Ev @493
    _ZThn20_N3SPK5PointD0Ev @494
    _ZThn20_N3SPK5PointD1Ev @495
    _ZThn20_N3SPK6SphereD0Ev @496
    _ZThn20_N3SPK6SphereD1Ev @497
    _ZThn20_N3SPK6System24propagateUpdateTransformEv @498
    _ZThn20_N3SPK6SystemD0Ev @499
    _ZThn20_N3SPK6SystemD1Ev @500
    _ZThn20_N3SPK6Vortex20innerUpdateTransformEv @501
    _ZThn20_N3SPK6VortexD0Ev @502
    _ZThn20_N3SPK6VortexD1Ev @503
    _ZThn20_N3SPK7Emitter24propagateUpdateTransformEv @504
    _ZThn20_N3SPK7EmitterD0Ev @505
    _ZThn20_N3SPK7EmitterD1Ev @506
    _ZThn20_N3SPK8Modifier24propagateUpdateTransformEv @507
    _ZThn20_N3SPK8ModifierD0Ev @508
    _ZThn20_N3SPK8ModifierD1Ev @509
    _ZThn20_N3SPK8ObstacleD0Ev @510
    _ZThn20_N3SPK8ObstacleD1Ev @511
    _ZThn20_N3SPK8RendererD0Ev @512
    _ZThn20_N3SPK8RendererD1Ev @513
    _ZThn20_N3SPK9CollisionD0Ev @514
    _ZThn20_N3SPK9CollisionD1Ev @515
    _ZThn20_N3SPK9DestroyerD0Ev @516
    _ZThn20_N3SPK9DestroyerD1Ev @517
    _ZThn20_N3SPK9PointMass20innerUpdateTransformEv @518
    _ZThn20_N3SPK9PointMassD0Ev @519
    _ZThn20_N3SPK9PointMassD1Ev @520
