EXPORTS
    _ZN3SPK4SFML10SFMLSystem6updateEf @1
    _ZN3SPK4SFML10SFMLSystemC1EbPN2sf12RenderTargetE @2
    _ZN3SPK4SFML10SFMLSystemC2EbPN2sf12RenderTargetE @3
    _ZN3SPK4SFML12SFMLRenderer10getZFactorEv @4
    _ZN3SPK4SFML12SFMLRenderer10setZFactorEf @5
    _ZN3SPK4SFML12SFMLRenderer11getViewZoomENS0_10ResizeModeE @6
    _ZN3SPK4SFML12SFMLRenderer11setBlendingENS_12BlendingModeE @7
    _ZN3SPK4SFML12SFMLRenderer13currentSystemE @8 DATA
    _ZN3SPK4SFML12SFMLRenderer13currentTargetE @9 DATA
    _ZN3SPK4SFML12SFMLRenderer16getCurrentTargetEv @10
    _ZN3SPK4SFML12SFMLRenderer17bindCurrentSystemERKNS0_10SFMLSystemE @11
    _ZN3SPK4SFML12SFMLRenderer17bindCurrentTargetERN2sf12RenderTargetE @12
    _ZN3SPK4SFML12SFMLRenderer20releaseCurrentSystemEv @13
    _ZN3SPK4SFML12SFMLRenderer20releaseCurrentTargetEv @14
    _ZN3SPK4SFML12SFMLRenderer6renderERKNS_5GroupE @15
    _ZN3SPK4SFML12SFMLRenderer7zFactorE @16 DATA
    _ZN3SPK4SFML12SFMLRendererC1Ev @17
    _ZN3SPK4SFML12SFMLRendererC2Ev @18
    _ZN3SPK4SFML12SFMLRendererD0Ev @19
    _ZN3SPK4SFML12SFMLRendererD1Ev @20
    _ZN3SPK4SFML12SFMLRendererD2Ev @21
    _ZN3SPK4SFML16SFMLLineRenderer11gpuIteratorE @22 DATA
    _ZN3SPK4SFML16SFMLLineRenderer11innerRenderERKNS_5GroupE @23
    _ZN3SPK4SFML16SFMLLineRenderer12checkBuffersERKNS_5GroupE @24
    _ZN3SPK4SFML16SFMLLineRenderer13createBuffersERKNS_5GroupE @25
    _ZN3SPK4SFML16SFMLLineRenderer14destroyBuffersERKNS_5GroupE @26
    _ZN3SPK4SFML16SFMLLineRenderer15GPU_BUFFER_NAMEE @27 DATA
    _ZN3SPK4SFML16SFMLLineRenderer9gpuBufferE @28 DATA
    _ZN3SPK4SFML16SFMLLineRendererC1EffNS0_10ResizeModeE @29
    _ZN3SPK4SFML16SFMLLineRendererC2EffNS0_10ResizeModeE @30
    _ZN3SPK4SFML16SFMLQuadRenderer11gpuIteratorE @31 DATA
    _ZN3SPK4SFML16SFMLQuadRenderer11innerRenderERKNS_5GroupE @32
    _ZN3SPK4SFML16SFMLQuadRenderer12checkBuffersERKNS_5GroupE @33
    _ZN3SPK4SFML16SFMLQuadRenderer13createBuffersERKNS_5GroupE @34
    _ZN3SPK4SFML16SFMLQuadRenderer13textureBufferE @35 DATA
    _ZN3SPK4SFML16SFMLQuadRenderer14destroyBuffersERKNS_5GroupE @36
    _ZN3SPK4SFML16SFMLQuadRenderer14renderParticleE @37 DATA
    _ZN3SPK4SFML16SFMLQuadRenderer15GPU_BUFFER_NAMEE @38 DATA
    _ZN3SPK4SFML16SFMLQuadRenderer15textureIteratorE @39 DATA
    _ZN3SPK4SFML16SFMLQuadRenderer16setTexturingModeENS_13TexturingModeE @40
    _ZN3SPK4SFML16SFMLQuadRenderer19TEXTURE_BUFFER_NAMEE @41 DATA
    _ZN3SPK4SFML16SFMLQuadRenderer9gpuBufferE @42 DATA
    _ZN3SPK4SFML16SFMLQuadRendererC1EPN2sf5ImageEff @43
    _ZN3SPK4SFML16SFMLQuadRendererC2EPN2sf5ImageEff @44
    _ZN3SPK4SFML17SFMLPointRenderer11gpuIteratorE @45 DATA
    _ZN3SPK4SFML17SFMLPointRenderer11innerRenderERKNS_5GroupE @46
    _ZN3SPK4SFML17SFMLPointRenderer12checkBuffersERKNS_5GroupE @47
    _ZN3SPK4SFML17SFMLPointRenderer13createBuffersERKNS_5GroupE @48
    _ZN3SPK4SFML17SFMLPointRenderer14destroyBuffersERKNS_5GroupE @49
    _ZN3SPK4SFML17SFMLPointRenderer15GPU_BUFFER_NAMEE @50 DATA
    _ZN3SPK4SFML17SFMLPointRenderer7setTypeENS_9PointTypeE @51
    _ZN3SPK4SFML17SFMLPointRenderer9gpuBufferE @52 DATA
    _ZN3SPK4SFML17SFMLPointRendererC1EfNS0_10ResizeModeE @53
    _ZN3SPK4SFML17SFMLPointRendererC2EfNS0_10ResizeModeE @54
    _ZN3SPK4SFML20SFMLDrawableRenderer11innerRenderERKNS_5GroupE @55
    _ZN3SPK4SFML20SFMLDrawableRenderer7RAD2DEGE @56 DATA
    _ZN3SPK4SFML20SFMLDrawableRendererC1EPN2sf8DrawableEff @57
    _ZN3SPK4SFML20SFMLDrawableRendererC2EPN2sf8DrawableEff @58
    _ZNK3SPK4SFML10SFMLSystem12getClassNameEv @59
    _ZNK3SPK4SFML10SFMLSystem18isWorldTransformedEv @60
    _ZNK3SPK4SFML10SFMLSystem5cloneEb @61
    _ZNK3SPK4SFML10SFMLSystem6RenderERN2sf12RenderTargetERNS2_8RendererE @62
    _ZNK3SPK4SFML10SFMLSystem6renderEv @63
    _ZNK3SPK4SFML12SFMLRenderer12getBlendModeEv @64
    _ZNK3SPK4SFML12SFMLRenderer12initBlendingEv @65
    _ZNK3SPK4SFML12SFMLRenderer16hasGroundCullingEv @66
    _ZNK3SPK4SFML12SFMLRenderer18initTransformationEv @67
    _ZNK3SPK4SFML12SFMLRenderer20finishTransformationEv @68
    _ZNK3SPK4SFML16SFMLLineRenderer12getClassNameEv @69
    _ZNK3SPK4SFML16SFMLLineRenderer5cloneEb @70
    _ZNK3SPK4SFML16SFMLQuadRenderer11renderRotVAERKNS_8ParticleE @71
    _ZNK3SPK4SFML16SFMLQuadRenderer12getClassNameEv @72
    _ZNK3SPK4SFML16SFMLQuadRenderer13renderAtlasVAERKNS_8ParticleE @73
    _ZNK3SPK4SFML16SFMLQuadRenderer16renderAtlasRotVAERKNS_8ParticleE @74
    _ZNK3SPK4SFML16SFMLQuadRenderer19createTextureBufferERKNS_5GroupE @75
    _ZNK3SPK4SFML16SFMLQuadRenderer20GLCallColorAndVertexERKNS_8ParticleE @76
    _ZNK3SPK4SFML16SFMLQuadRenderer20GLCallTexture2DAtlasERKNS_8ParticleE @77
    _ZNK3SPK4SFML16SFMLQuadRenderer5cloneEb @78
    _ZNK3SPK4SFML16SFMLQuadRenderer8renderVAERKNS_8ParticleE @79
    _ZNK3SPK4SFML17SFMLPointRenderer12getClassNameEv @80
    _ZNK3SPK4SFML17SFMLPointRenderer5cloneEb @81
    _ZNK3SPK4SFML20SFMLDrawableRenderer12getClassNameEv @82
    _ZNK3SPK4SFML20SFMLDrawableRenderer5cloneEb @83
    _ZTVN3SPK4SFML10SFMLSystemE @84 DATA
    _ZTVN3SPK4SFML12SFMLRendererE @85 DATA
    _ZTVN3SPK4SFML16SFMLLineRendererE @86 DATA
    _ZTVN3SPK4SFML16SFMLQuadRendererE @87 DATA
    _ZTVN3SPK4SFML17SFMLPointRendererE @88 DATA
    _ZTVN3SPK4SFML20SFMLDrawableRendererE @89 DATA
    _ZThn20_N3SPK4SFML10SFMLSystemD0Ev @90
    _ZThn20_N3SPK4SFML10SFMLSystemD1Ev @91
    _ZThn20_N3SPK4SFML12SFMLRendererD0Ev @92
    _ZThn20_N3SPK4SFML12SFMLRendererD1Ev @93
    _ZThn20_N3SPK4SFML16SFMLLineRenderer12checkBuffersERKNS_5GroupE @94
    _ZThn20_N3SPK4SFML16SFMLLineRenderer13createBuffersERKNS_5GroupE @95
    _ZThn20_N3SPK4SFML16SFMLLineRenderer14destroyBuffersERKNS_5GroupE @96
    _ZThn20_N3SPK4SFML16SFMLLineRendererD0Ev @97
    _ZThn20_N3SPK4SFML16SFMLLineRendererD1Ev @98
    _ZThn20_N3SPK4SFML16SFMLQuadRenderer12checkBuffersERKNS_5GroupE @99
    _ZThn20_N3SPK4SFML16SFMLQuadRenderer13createBuffersERKNS_5GroupE @100
    _ZThn20_N3SPK4SFML16SFMLQuadRenderer14destroyBuffersERKNS_5GroupE @101
    _ZThn20_N3SPK4SFML16SFMLQuadRendererD0Ev @102
    _ZThn20_N3SPK4SFML16SFMLQuadRendererD1Ev @103
    _ZThn20_N3SPK4SFML17SFMLPointRenderer12checkBuffersERKNS_5GroupE @104
    _ZThn20_N3SPK4SFML17SFMLPointRenderer13createBuffersERKNS_5GroupE @105
    _ZThn20_N3SPK4SFML17SFMLPointRenderer14destroyBuffersERKNS_5GroupE @106
    _ZThn20_N3SPK4SFML17SFMLPointRendererD0Ev @107
    _ZThn20_N3SPK4SFML17SFMLPointRendererD1Ev @108
    _ZThn20_N3SPK4SFML20SFMLDrawableRendererD0Ev @109
    _ZThn20_N3SPK4SFML20SFMLDrawableRendererD1Ev @110
    _ZThn220_N3SPK4SFML10SFMLSystemD0Ev @111
    _ZThn220_N3SPK4SFML10SFMLSystemD1Ev @112
    _ZThn220_NK3SPK4SFML10SFMLSystem6RenderERN2sf12RenderTargetERNS2_8RendererE @113
    _ZThn44_N3SPK4SFML16SFMLLineRendererD0Ev @114
    _ZThn44_N3SPK4SFML16SFMLLineRendererD1Ev @115
    _ZThn44_N3SPK4SFML16SFMLQuadRenderer16setTexturingModeENS_13TexturingModeE @116
    _ZThn44_N3SPK4SFML16SFMLQuadRendererD0Ev @117
    _ZThn44_N3SPK4SFML16SFMLQuadRendererD1Ev @118
    _ZThn44_N3SPK4SFML17SFMLPointRenderer7setTypeENS_9PointTypeE @119
    _ZThn44_N3SPK4SFML17SFMLPointRendererD0Ev @120
    _ZThn44_N3SPK4SFML17SFMLPointRendererD1Ev @121
    _ZThn92_N3SPK4SFML16SFMLQuadRendererD0Ev @122
    _ZThn92_N3SPK4SFML16SFMLQuadRendererD1Ev @123
