EXPORTS
    _ZN3SPK2GL10GLRenderer11setBlendingENS_12BlendingModeE @1
    _ZN3SPK2GL10GLRenderer12saveGLStatesEv @2
    _ZN3SPK2GL10GLRenderer14enableBlendingEb @3
    _ZN3SPK2GL10GLRenderer15restoreGLStatesEv @4
    _ZN3SPK2GL10GLRendererC1Ev @5
    _ZN3SPK2GL10GLRendererC2Ev @6
    _ZN3SPK2GL10GLRendererD0Ev @7
    _ZN3SPK2GL10GLRendererD1Ev @8
    _ZN3SPK2GL10GLRendererD2Ev @9
    _ZN3SPK2GL12GLExtHandler11shaderGLExtE @10 DATA
    _ZN3SPK2GL12GLExtHandler12glTexImage3DEjijiiiijjPKv @11
    _ZN3SPK2GL12GLExtHandler12pixelPerUnitE @12 DATA
    _ZN3SPK2GL12GLExtHandler14POINT_SIZE_MAXE @13 DATA
    _ZN3SPK2GL12GLExtHandler14POINT_SIZE_MINE @14 DATA
    _ZN3SPK2GL12GLExtHandler14getShaderGLExtEv @15
    _ZN3SPK2GL12GLExtHandler14texture3DGLExtE @16 DATA
    _ZN3SPK2GL12GLExtHandler15loadGLExtShaderEv @17
    _ZN3SPK2GL12GLExtHandler15setPixelPerUnitEfi @18
    _ZN3SPK2GL12GLExtHandler16QUADRATIC_SCREENE @19 DATA
    _ZN3SPK2GL12GLExtHandler16SPK_glTexImage3DE @20 DATA
    _ZN3SPK2GL12GLExtHandler16SPK_glUseProgramE @21 DATA
    _ZN3SPK2GL12GLExtHandler16glGetProcAddressEPKc @22
    _ZN3SPK2GL12GLExtHandler16pointSpriteGLExtE @23 DATA
    _ZN3SPK2GL12GLExtHandler17SPK_glLinkProgramE @24 DATA
    _ZN3SPK2GL12GLExtHandler17getTexture3DGLExtEv @25
    _ZN3SPK2GL12GLExtHandler18POINT_SIZE_CURRENTE @26 DATA
    _ZN3SPK2GL12GLExtHandler18SPK_glAttachShaderE @27 DATA
    _ZN3SPK2GL12GLExtHandler18SPK_glCreateShaderE @28 DATA
    _ZN3SPK2GL12GLExtHandler18SPK_glDeleteShaderE @29 DATA
    _ZN3SPK2GL12GLExtHandler18SPK_glDetachShaderE @30 DATA
    _ZN3SPK2GL12GLExtHandler18SPK_glShaderSourceE @31 DATA
    _ZN3SPK2GL12GLExtHandler18loadGLExtTexture3DEv @32
    _ZN3SPK2GL12GLExtHandler19SPK_glCompileShaderE @33 DATA
    _ZN3SPK2GL12GLExtHandler19SPK_glCreateProgramE @34 DATA
    _ZN3SPK2GL12GLExtHandler19SPK_glDeleteProgramE @35 DATA
    _ZN3SPK2GL12GLExtHandler19getPointSpriteGLExtEv @36
    _ZN3SPK2GL12GLExtHandler19pointParameterGLExtE @37 DATA
    _ZN3SPK2GL12GLExtHandler20loadGLExtPointSpriteEv @38
    _ZN3SPK2GL12GLExtHandler21SPK_glPointParameterfE @39 DATA
    _ZN3SPK2GL12GLExtHandler22SPK_glPointParameterfvE @40 DATA
    _ZN3SPK2GL12GLExtHandler22enablePointSpriteGLExtEv @41
    _ZN3SPK2GL12GLExtHandler22getPointParameterGLExtEv @42
    _ZN3SPK2GL12GLExtHandler23disablePointSpriteGLExtEv @43
    _ZN3SPK2GL12GLExtHandler23loadGLExtPointParameterEv @44
    _ZN3SPK2GL12GLExtHandler25enablePointParameterGLExtEfb @45
    _ZN3SPK2GL12GLExtHandler26disablePointParameterGLExtEv @46
    _ZN3SPK2GL14GLLineRenderer11gpuIteratorE @47 DATA
    _ZN3SPK2GL14GLLineRenderer12checkBuffersERKNS_5GroupE @48
    _ZN3SPK2GL14GLLineRenderer13createBuffersERKNS_5GroupE @49
    _ZN3SPK2GL14GLLineRenderer14destroyBuffersERKNS_5GroupE @50
    _ZN3SPK2GL14GLLineRenderer15GPU_BUFFER_NAMEE @51 DATA
    _ZN3SPK2GL14GLLineRenderer6renderERKNS_5GroupE @52
    _ZN3SPK2GL14GLLineRenderer9gpuBufferE @53 DATA
    _ZN3SPK2GL14GLLineRendererC1Eff @54
    _ZN3SPK2GL14GLLineRendererC2Eff @55
    _ZN3SPK2GL14GLQuadRenderer11gpuIteratorE @56 DATA
    _ZN3SPK2GL14GLQuadRenderer12checkBuffersERKNS_5GroupE @57
    _ZN3SPK2GL14GLQuadRenderer13createBuffersERKNS_5GroupE @58
    _ZN3SPK2GL14GLQuadRenderer13textureBufferE @59 DATA
    _ZN3SPK2GL14GLQuadRenderer14destroyBuffersERKNS_5GroupE @60
    _ZN3SPK2GL14GLQuadRenderer14renderParticleE @61 DATA
    _ZN3SPK2GL14GLQuadRenderer15GPU_BUFFER_NAMEE @62 DATA
    _ZN3SPK2GL14GLQuadRenderer15textureIteratorE @63 DATA
    _ZN3SPK2GL14GLQuadRenderer16setTexturingModeENS_13TexturingModeE @64
    _ZN3SPK2GL14GLQuadRenderer19TEXTURE_BUFFER_NAMEE @65 DATA
    _ZN3SPK2GL14GLQuadRenderer6renderERKNS_5GroupE @66
    _ZN3SPK2GL14GLQuadRenderer9gpuBufferE @67 DATA
    _ZN3SPK2GL14GLQuadRendererC1Eff @68
    _ZN3SPK2GL14GLQuadRendererC2Eff @69
    _ZN3SPK2GL15GLPointRenderer15enableWorldSizeEb @70
    _ZN3SPK2GL15GLPointRenderer6renderERKNS_5GroupE @71
    _ZN3SPK2GL15GLPointRenderer7setTypeENS_9PointTypeE @72
    _ZN3SPK2GL15GLPointRendererC1Ef @73
    _ZN3SPK2GL15GLPointRendererC2Ef @74
    _ZN3SPK2GL19GLLineTrailRenderer11colorBufferE @75 DATA
    _ZN3SPK2GL19GLLineTrailRenderer11valueBufferE @76 DATA
    _ZN3SPK2GL19GLLineTrailRenderer12checkBuffersERKNS_5GroupE @77
    _ZN3SPK2GL19GLLineTrailRenderer12vertexBufferE @78 DATA
    _ZN3SPK2GL19GLLineTrailRenderer13colorIteratorE @79 DATA
    _ZN3SPK2GL19GLLineTrailRenderer13createBuffersERKNS_5GroupE @80
    _ZN3SPK2GL19GLLineTrailRenderer13valueIteratorE @81 DATA
    _ZN3SPK2GL19GLLineTrailRenderer14destroyBuffersERKNS_5GroupE @82
    _ZN3SPK2GL19GLLineTrailRenderer14enableBlendingEb @83
    _ZN3SPK2GL19GLLineTrailRenderer14vertexIteratorE @84 DATA
    _ZN3SPK2GL19GLLineTrailRenderer17COLOR_BUFFER_NAMEE @85 DATA
    _ZN3SPK2GL19GLLineTrailRenderer17VALUE_BUFFER_NAMEE @86 DATA
    _ZN3SPK2GL19GLLineTrailRenderer18VERTEX_BUFFER_NAMEE @87 DATA
    _ZN3SPK2GL19GLLineTrailRenderer19setDegeneratedLinesEffff @88
    _ZN3SPK2GL19GLLineTrailRenderer4initERKNS_5GroupE @89
    _ZN3SPK2GL19GLLineTrailRenderer6renderERKNS_5GroupE @90
    _ZN3SPK2GL19GLLineTrailRendererC1Ev @91
    _ZN3SPK2GL19GLLineTrailRendererC2Ev @92
    _ZNK3SPK2GL10GLRenderer12initBlendingEv @93
    _ZNK3SPK2GL10GLRenderer18getTextureBlendingEv @94
    _ZNK3SPK2GL10GLRenderer18initRenderingHintsEv @95
    _ZNK3SPK2GL14GLLineRenderer12getClassNameEv @96
    _ZNK3SPK2GL14GLLineRenderer5cloneEb @97
    _ZNK3SPK2GL14GLQuadRenderer11render2DRotERKNS_8ParticleE @98
    _ZNK3SPK2GL14GLQuadRenderer11render3DRotERKNS_8ParticleE @99
    _ZNK3SPK2GL14GLQuadRenderer12getClassNameEv @100
    _ZNK3SPK2GL14GLQuadRenderer13render2DAtlasERKNS_8ParticleE @101
    _ZNK3SPK2GL14GLQuadRenderer15GLCallTexture3DERKNS_8ParticleE @102
    _ZNK3SPK2GL14GLQuadRenderer15invertModelViewEv @103
    _ZNK3SPK2GL14GLQuadRenderer16render2DAtlasRotERKNS_8ParticleE @104
    _ZNK3SPK2GL14GLQuadRenderer19createTextureBufferERKNS_5GroupE @105
    _ZNK3SPK2GL14GLQuadRenderer20GLCallColorAndVertexERKNS_8ParticleE @106
    _ZNK3SPK2GL14GLQuadRenderer20GLCallTexture2DAtlasERKNS_8ParticleE @107
    _ZNK3SPK2GL14GLQuadRenderer5cloneEb @108
    _ZNK3SPK2GL14GLQuadRenderer8render2DERKNS_8ParticleE @109
    _ZNK3SPK2GL14GLQuadRenderer8render3DERKNS_8ParticleE @110
    _ZNK3SPK2GL15GLPointRenderer12getClassNameEv @111
    _ZNK3SPK2GL15GLPointRenderer5cloneEb @112
    _ZNK3SPK2GL19GLLineTrailRenderer12getClassNameEv @113
    _ZNK3SPK2GL19GLLineTrailRenderer4initERKNS_8ParticleEf @114
    _ZNK3SPK2GL19GLLineTrailRenderer5cloneEb @115
    _ZTVN3SPK2GL10GLRendererE @116 DATA
    _ZTVN3SPK2GL14GLLineRendererE @117 DATA
    _ZTVN3SPK2GL14GLQuadRendererE @118 DATA
    _ZTVN3SPK2GL15GLPointRendererE @119 DATA
    _ZTVN3SPK2GL19GLLineTrailRendererE @120 DATA
    _ZThn100_N3SPK2GL14GLQuadRendererD0Ev @121
    _ZThn100_N3SPK2GL14GLQuadRendererD1Ev @122
    _ZThn20_N3SPK2GL10GLRendererD0Ev @123
    _ZThn20_N3SPK2GL10GLRendererD1Ev @124
    _ZThn20_N3SPK2GL14GLLineRenderer12checkBuffersERKNS_5GroupE @125
    _ZThn20_N3SPK2GL14GLLineRenderer13createBuffersERKNS_5GroupE @126
    _ZThn20_N3SPK2GL14GLLineRenderer14destroyBuffersERKNS_5GroupE @127
    _ZThn20_N3SPK2GL14GLLineRendererD0Ev @128
    _ZThn20_N3SPK2GL14GLLineRendererD1Ev @129
    _ZThn20_N3SPK2GL14GLQuadRenderer12checkBuffersERKNS_5GroupE @130
    _ZThn20_N3SPK2GL14GLQuadRenderer13createBuffersERKNS_5GroupE @131
    _ZThn20_N3SPK2GL14GLQuadRenderer14destroyBuffersERKNS_5GroupE @132
    _ZThn20_N3SPK2GL14GLQuadRendererD0Ev @133
    _ZThn20_N3SPK2GL14GLQuadRendererD1Ev @134
    _ZThn20_N3SPK2GL15GLPointRendererD0Ev @135
    _ZThn20_N3SPK2GL15GLPointRendererD1Ev @136
    _ZThn20_N3SPK2GL19GLLineTrailRenderer12checkBuffersERKNS_5GroupE @137
    _ZThn20_N3SPK2GL19GLLineTrailRenderer13createBuffersERKNS_5GroupE @138
    _ZThn20_N3SPK2GL19GLLineTrailRenderer14destroyBuffersERKNS_5GroupE @139
    _ZThn20_N3SPK2GL19GLLineTrailRendererD0Ev @140
    _ZThn20_N3SPK2GL19GLLineTrailRendererD1Ev @141
    _ZThn52_N3SPK2GL14GLLineRendererD0Ev @142
    _ZThn52_N3SPK2GL14GLLineRendererD1Ev @143
    _ZThn52_N3SPK2GL14GLQuadRenderer16setTexturingModeENS_13TexturingModeE @144
    _ZThn52_N3SPK2GL14GLQuadRendererD0Ev @145
    _ZThn52_N3SPK2GL14GLQuadRendererD1Ev @146
    _ZThn52_N3SPK2GL15GLPointRenderer7setTypeENS_9PointTypeE @147
    _ZThn52_N3SPK2GL15GLPointRendererD0Ev @148
    _ZThn52_N3SPK2GL15GLPointRendererD1Ev @149
