EXPORTS
    _ZN3SPK10SPKFactory10destroyAllEv @1
    _ZN3SPK10SPKFactory10findByNameERKSs @2
    _ZN3SPK10SPKFactory11getInstanceEv @3
    _ZN3SPK10SPKFactory11traceObjectERKSt17_Rb_tree_iteratorISt4pairIKmPNS_12RegisterableEEEb @4
    _ZN3SPK10SPKFactory14registerObjectEPNS_12RegisterableE @5
    _ZN3SPK10SPKFactory15destroyInstanceEv @6
    _ZN3SPK10SPKFactory15markAsProcessedEPKNS_12RegisterableEPS1_ @7
    _ZN3SPK10SPKFactory16unregisterObjectERSt17_Rb_tree_iteratorISt4pairIKmPNS_12RegisterableEEEb @8
    _ZN3SPK10SPKFactory16unregisterObjectEmb @9
    _ZN3SPK10SPKFactory18getProcessedObjectEPKNS_12RegisterableE @10
    _ZN3SPK10SPKFactory18isAlreadyProcessedEPKNS_12RegisterableE @11
    _ZN3SPK10SPKFactory3getEm @12
    _ZN3SPK10SPKFactory4copyEPKNS_12RegisterableE @13
    _ZN3SPK10SPKFactory4copyEm @14
    _ZN3SPK10SPKFactory5traceEPKNS_12RegisterableE @15
    _ZN3SPK10SPKFactory5traceEm @16
    _ZN3SPK10SPKFactory6createERKNS_12RegisterableE @17
    _ZN3SPK10SPKFactory7destroyEPNS_12RegisterableEb @18
    _ZN3SPK10SPKFactory7destroyEmb @19
    _ZN3SPK10SPKFactory8instanceE @20 DATA
    _ZN3SPK10SPKFactory8traceAllEv @21
    _ZN3SPK10SPKFactory9currentIDE @22 DATA
    _ZN3SPK10SPKFactoryC1Ev @23
    _ZN3SPK10SPKFactoryD1Ev @24
    _ZN3SPK10getSqrDistERKNS_8Vector3DES2_ @25
    _ZN3SPK10randomSeedE @26 DATA
    _ZN3SPK11LinearForce20innerUpdateTransformEv @27
    _ZN3SPK11LinearForceC1EPNS_4ZoneENS_15ModifierTriggerERKNS_8Vector3DENS_11ForceFactorENS_10ModelParamE @28
    _ZN3SPK11LinearForceC2EPNS_4ZoneENS_15ModifierTriggerERKNS_8Vector3DENS_11ForceFactorENS_10ModelParamE @29
    _ZN3SPK11defaultZoneE @30 DATA
    _ZN3SPK12Interpolator10clearGraphEv @31
    _ZN3SPK12Interpolator11interpolateERKNS_8ParticleENS_10ModelParamEfff @32
    _ZN3SPK12Interpolator12COMPUTE_X_FNE @33 DATA
    _ZN3SPK12Interpolator12interpolateYERKNS_17InterpolatorEntryEf @34
    _ZN3SPK12Interpolator16generateSinCurveEffffffjj @35
    _ZN3SPK12Interpolator17generatePolyCurveEffffffj @36
    _ZN3SPK12Interpolator8addEntryERKNS_17InterpolatorEntryE @37
    _ZN3SPK12Interpolator8addEntryEff @38
    _ZN3SPK12Interpolator8addEntryEfff @39
    _ZN3SPK12InterpolatorC1Ev @40
    _ZN3SPK12InterpolatorC2Ev @41
    _ZN3SPK12InterpolatorD1Ev @42
    _ZN3SPK12Registerable10findByNameERKSs @43
    _ZN3SPK12Registerable10onRegisterEv @44
    _ZN3SPK12Registerable12copyChildrenERKS0_b @45
    _ZN3SPK12Registerable12destroyChildEPS0_b @46
    _ZN3SPK12Registerable12onUnregisterEv @47
    _ZN3SPK12Registerable13registerChildEPS0_b @48
    _ZN3SPK12Registerable14registerObjectEPS0_b @49
    _ZN3SPK12Registerable15destroyChildrenEb @50
    _ZN3SPK12Registerable16registerChildrenEb @51
    _ZN3SPK12Registerable18decrementReferenceEv @52
    _ZN3SPK12Registerable18incrementReferenceEv @53
    _ZN3SPK12Registerable23decrementChildReferenceEPS0_ @54
    _ZN3SPK12Registerable23incrementChildReferenceEPS0_ @55
    _ZN3SPK12Registerable9copyChildEPS0_b @56
    _ZN3SPK12RegisterableC1ERKS0_ @57
    _ZN3SPK12RegisterableC1Ev @58
    _ZN3SPK12RegisterableC2ERKS0_ @59
    _ZN3SPK12RegisterableC2Ev @60
    _ZN3SPK12RegisterableD0Ev @61
    _ZN3SPK12RegisterableD1Ev @62
    _ZN3SPK12RegisterableD2Ev @63
    _ZN3SPK12crossProductERKNS_8Vector3DES2_ @64
    _ZN3SPK12crossProductERKNS_8Vector3DES2_RS0_ @65
    _ZN3SPK12defaultModelE @66 DATA
    _ZN3SPK13BufferHandler12checkBuffersERKNS_5GroupE @67
    _ZN3SPK13BufferHandler13createBuffersERKNS_5GroupE @68
    _ZN3SPK13BufferHandler14bufferCreationE @69 DATA
    _ZN3SPK13BufferHandler14destroyBuffersERKNS_5GroupE @70
    _ZN3SPK13BufferHandler14prepareBuffersERKNS_5GroupE @71
    _ZN3SPK13BufferHandler21enableBuffersCreationEb @72
    _ZN3SPK13BufferHandler24isBuffersCreationEnabledEv @73
    _ZN3SPK13BufferHandlerC2Ev @74
    _ZN3SPK13BufferHandlerD0Ev @75
    _ZN3SPK13BufferHandlerD1Ev @76
    _ZN3SPK13BufferHandlerD2Ev @77
    _ZN3SPK13ModifierGroup10findByNameERKSs @78
    _ZN3SPK13ModifierGroup11addModifierEPNS_8ModifierE @79
    _ZN3SPK13ModifierGroup12checkBuffersERKNS_5GroupE @80
    _ZN3SPK13ModifierGroup12copyChildrenERKS0_b @81
    _ZN3SPK13ModifierGroup13createBuffersERKNS_5GroupE @82
    _ZN3SPK13ModifierGroup14destroyBuffersERKNS_5GroupE @83
    _ZN3SPK13ModifierGroup14removeModifierEPKNS_8ModifierE @84
    _ZN3SPK13ModifierGroup15destroyChildrenEb @85
    _ZN3SPK13ModifierGroup16registerChildrenEb @86
    _ZN3SPK13ModifierGroupC1EPNS_4ZoneENS_15ModifierTriggerE @87
    _ZN3SPK13ModifierGroupC2EPNS_4ZoneENS_15ModifierTriggerE @88
    _ZN3SPK13NormalEmitter10findByNameERKSs @89
    _ZN3SPK13NormalEmitter12copyChildrenERKS0_b @90
    _ZN3SPK13NormalEmitter13setNormalZoneEPNS_4ZoneE @91
    _ZN3SPK13NormalEmitter15destroyChildrenEb @92
    _ZN3SPK13NormalEmitter16registerChildrenEb @93
    _ZN3SPK13NormalEmitterC1EPNS_4ZoneEb @94
    _ZN3SPK13NormalEmitterC2EPNS_4ZoneEb @95
    _ZN3SPK13Transformable12transformDirERNS_8Vector3DERKS1_ @96
    _ZN3SPK13Transformable12transformPosERNS_8Vector3DERKS1_ @97
    _ZN3SPK13Transformable14setTransformNCEPKf @98
    _ZN3SPK13Transformable15notifyForUpdateEv @99
    _ZN3SPK13Transformable15updateTransformEPKS0_ @100
    _ZN3SPK13Transformable20innerUpdateTransformEv @101
    _ZN3SPK13Transformable20setTransformPositionERKNS_8Vector3DE @102
    _ZN3SPK13Transformable23setTransformOrientationENS_8Vector3DEf @103
    _ZN3SPK13Transformable24propagateUpdateTransformEv @104
    _ZN3SPK13Transformable24setTransformOrientationXEf @105
    _ZN3SPK13Transformable24setTransformOrientationYEf @106
    _ZN3SPK13Transformable24setTransformOrientationZEf @107
    _ZN3SPK13Transformable25setTransformOrientationLHENS_8Vector3DES1_ @108
    _ZN3SPK13Transformable25setTransformOrientationRHENS_8Vector3DES1_ @109
    _ZN3SPK13Transformable6rotateERNS_8Vector3DERKS1_PKf @110
    _ZN3SPK13Transformable8IDENTITYE @111 DATA
    _ZN3SPK13Transformable8multiplyEPfPKfS3_ @112
    _ZN3SPK13Transformable8multiplyERNS_8Vector3DERKS1_PKf @113
    _ZN3SPK13TransformableC1ERKS0_ @114
    _ZN3SPK13TransformableC1Ev @115
    _ZN3SPK13TransformableC2ERKS0_ @116
    _ZN3SPK13TransformableC2Ev @117
    _ZN3SPK13TransformableD0Ev @118
    _ZN3SPK13TransformableD1Ev @119
    _ZN3SPK13TransformableD2Ev @120
    _ZN3SPK14SphericEmitter12setDirectionERKNS_8Vector3DE @121
    _ZN3SPK14SphericEmitter13computeMatrixEv @122
    _ZN3SPK14SphericEmitter20innerUpdateTransformEv @123
    _ZN3SPK14SphericEmitter2PIE @124 DATA
    _ZN3SPK14SphericEmitter9setAnglesEff @125
    _ZN3SPK14SphericEmitterC1ERKNS_8Vector3DEff @126
    _ZN3SPK14SphericEmitterC2ERKNS_8Vector3DEff @127
    _ZN3SPK15StraightEmitter12setDirectionERKNS_8Vector3DE @128
    _ZN3SPK15StraightEmitter20innerUpdateTransformEv @129
    _ZN3SPK15StraightEmitterC1ERKNS_8Vector3DE @130
    _ZN3SPK15StraightEmitterC2ERKNS_8Vector3DE @131
    _ZN3SPK21QuadRendererInterface16setTexturingModeENS_13TexturingModeE @132
    _ZN3SPK21QuadRendererInterface18setAtlasDimensionsEjj @133
    _ZN3SPK21QuadRendererInterfaceC1Eff @134
    _ZN3SPK21QuadRendererInterfaceC2Eff @135
    _ZN3SPK21QuadRendererInterfaceD0Ev @136
    _ZN3SPK21QuadRendererInterfaceD1Ev @137
    _ZN3SPK27Oriented3DRendererInterface14setOrientationENS_15LookOrientationENS_13UpOrientationENS_10LockedAxisE @138
    _ZN3SPK27Oriented3DRendererInterface14setOrientationENS_17OrientationPresetE @139
    _ZN3SPK27Oriented3DRendererInterfaceC1Ev @140
    _ZN3SPK27Oriented3DRendererInterfaceC2Ev @141
    _ZN3SPK27Oriented3DRendererInterfaceD0Ev @142
    _ZN3SPK27Oriented3DRendererInterfaceD1Ev @143
    _ZN3SPK4Line11computeDistEv @144
    _ZN3SPK4Line11setPositionERKNS_8Vector3DE @145
    _ZN3SPK4Line15computePositionEv @146
    _ZN3SPK4Line20innerUpdateTransformEv @147
    _ZN3SPK4Line9pushBoundERKNS_8Vector3DE @148
    _ZN3SPK4Line9setBoundsERKNS_8Vector3DES3_ @149
    _ZN3SPK4LineC1ERKNS_8Vector3DES3_ @150
    _ZN3SPK4LineC2ERKNS_8Vector3DES3_ @151
    _ZN3SPK4Ring20innerUpdateTransformEv @152
    _ZN3SPK4Ring9setNormalERKNS_8Vector3DE @153
    _ZN3SPK4Ring9setRadiusEff @154
    _ZN3SPK4RingC1ERKNS_8Vector3DES3_ff @155
    _ZN3SPK4RingC2ERKNS_8Vector3DES3_ff @156
    _ZN3SPK4Zone11setPositionERKNS_8Vector3DE @157
    _ZN3SPK4Zone19APPROXIMATION_VALUEE @158 DATA
    _ZN3SPK4Zone20innerUpdateTransformEv @159
    _ZN3SPK4Zone20normalizeOrRandomizeERNS_8Vector3DE @160
    _ZN3SPK4ZoneC1ERKNS_8Vector3DE @161
    _ZN3SPK4ZoneC2ERKNS_8Vector3DE @162
    _ZN3SPK4ZoneD0Ev @163
    _ZN3SPK4ZoneD1Ev @164
    _ZN3SPK4ZoneD2Ev @165
    _ZN3SPK5AABox12setDimensionERKNS_8Vector3DE @166
    _ZN3SPK5AABoxC1ERKNS_8Vector3DES3_ @167
    _ZN3SPK5AABoxC2ERKNS_8Vector3DES3_ @168
    _ZN3SPK5Group10addEmitterEPNS_7EmitterE @169
    _ZN3SPK5Group10findByNameERKSs @170
    _ZN3SPK5Group10reallocateEj @171
    _ZN3SPK5Group10updateAABBERKNS_8ParticleE @172
    _ZN3SPK5Group11addModifierEPNS_8ModifierE @173
    _ZN3SPK5Group11computeAABBEv @174
    _ZN3SPK5Group11getParticleEj @175
    _ZN3SPK5Group11setRendererEPNS_8RendererE @176
    _ZN3SPK5Group12addParticlesEPKNS_4ZoneEPNS_7EmitterEfb @177
    _ZN3SPK5Group12addParticlesEPNS_7EmitterEf @178
    _ZN3SPK5Group12addParticlesERKNS_8Vector3DEPNS_7EmitterEf @179
    _ZN3SPK5Group12addParticlesERKNS_8Vector3DES3_PNS_7EmitterEff @180
    _ZN3SPK5Group12addParticlesERKNS_8Vector3DES3_S3_ff @181
    _ZN3SPK5Group12addParticlesEjPNS_7EmitterE @182
    _ZN3SPK5Group12addParticlesEjRKNS_8Vector3DES3_PKNS_4ZoneEPNS_7EmitterEb @183
    _ZN3SPK5Group12copyChildrenERKS0_b @184
    _ZN3SPK5Group12pushParticleERN9__gnu_cxx17__normal_iteratorIPNS0_11EmitterDataESt6vectorIS3_SaIS3_EEEERj @185
    _ZN3SPK5Group13removeEmitterEPNS_7EmitterE @186
    _ZN3SPK5Group13sortParticlesEii @187
    _ZN3SPK5Group13sortParticlesEv @188
    _ZN3SPK5Group14launchParticleERNS_8ParticleERN9__gnu_cxx17__normal_iteratorIPNS0_11EmitterDataESt6vectorIS5_SaIS5_EEEERj @189
    _ZN3SPK5Group14removeModifierEPNS_8ModifierE @190
    _ZN3SPK5Group15destroyChildrenEb @191
    _ZN3SPK5Group16bufferManagementE @192 DATA
    _ZN3SPK5Group16computeDistancesEv @193
    _ZN3SPK5Group16registerChildrenEb @194
    _ZN3SPK5Group19flushAddedParticlesEv @195
    _ZN3SPK5Group19popNextManualAddingERj @196
    _ZN3SPK5Group23enableBuffersManagementEb @197
    _ZN3SPK5Group24propagateUpdateTransformEv @198
    _ZN3SPK5Group26isBuffersManagementEnabledEv @199
    _ZN3SPK5Group5emptyEv @200
    _ZN3SPK5Group6renderEv @201
    _ZN3SPK5Group6updateEf @202
    _ZN3SPK5GroupC1EPNS_5ModelEj @203
    _ZN3SPK5GroupC1ERKS0_ @204
    _ZN3SPK5GroupC2EPNS_5ModelEj @205
    _ZN3SPK5GroupC2ERKS0_ @206
    _ZN3SPK5GroupD0Ev @207
    _ZN3SPK5GroupD1Ev @208
    _ZN3SPK5GroupD2Ev @209
    _ZN3SPK5Model14DEFAULT_VALUESE @210 DATA
    _ZN3SPK5Model15getDefaultValueENS_10ModelParamE @211
    _ZN3SPK5Model8setParamENS_10ModelParamEf @212
    _ZN3SPK5Model8setParamENS_10ModelParamEff @213
    _ZN3SPK5Model8setParamENS_10ModelParamEffff @214
    _ZN3SPK5ModelC1ERKS0_ @215
    _ZN3SPK5ModelC1Eiiii @216
    _ZN3SPK5ModelC2ERKS0_ @217
    _ZN3SPK5ModelC2Eiiii @218
    _ZN3SPK5ModelD0Ev @219
    _ZN3SPK5ModelD1Ev @220
    _ZN3SPK5ModelD2Ev @221
    _ZN3SPK5NO_IDE @222 DATA
    _ZN3SPK5Plane20innerUpdateTransformEv @223
    _ZN3SPK5Plane9setNormalERKNS_8Vector3DE @224
    _ZN3SPK5PlaneC1ERKNS_8Vector3DES3_ @225
    _ZN3SPK5PlaneC2ERKNS_8Vector3DES3_ @226
    _ZN3SPK5PointC1ERKNS_8Vector3DE @227
    _ZN3SPK5PointC2ERKNS_8Vector3DE @228
    _ZN3SPK6Sphere9setRadiusEf @229
    _ZN3SPK6SphereC1ERKNS_8Vector3DEf @230
    _ZN3SPK6SphereC2ERKNS_8Vector3DEf @231
    _ZN3SPK6System10findByNameERKSs @232
    _ZN3SPK6System11computeAABBEv @233
    _ZN3SPK6System11getStepModeEv @234
    _ZN3SPK6System11innerUpdateEf @235
    _ZN3SPK6System11removeGroupEPNS_5GroupE @236
    _ZN3SPK6System11useRealStepEv @237
    _ZN3SPK6System12constantStepE @238 DATA
    _ZN3SPK6System12copyChildrenERKS0_b @239
    _ZN3SPK6System12setClampStepEbf @240
    _ZN3SPK6System13sortParticlesEv @241
    _ZN3SPK6System14cameraPositionE @242 DATA
    _ZN3SPK6System15destroyChildrenEb @243
    _ZN3SPK6System15useAdaptiveStepEff @244
    _ZN3SPK6System15useConstantStepEf @245
    _ZN3SPK6System16clampStepEnabledE @246 DATA
    _ZN3SPK6System16computeDistancesEv @247
    _ZN3SPK6System16registerChildrenEb @248
    _ZN3SPK6System17getCameraPositionEv @249
    _ZN3SPK6System17setCameraPositionERKNS_8Vector3DE @250
    _ZN3SPK6System18computeNbParticlesEv @251
    _ZN3SPK6System24propagateUpdateTransformEv @252
    _ZN3SPK6System4growEff @253
    _ZN3SPK6System5emptyEv @254
    _ZN3SPK6System6updateEf @255
    _ZN3SPK6System7maxStepE @256 DATA
    _ZN3SPK6System7minStepE @257 DATA
    _ZN3SPK6System8addGroupEPNS_5GroupE @258
    _ZN3SPK6System8stepModeE @259 DATA
    _ZN3SPK6System9clampStepE @260 DATA
    _ZN3SPK6SystemC1Ev @261
    _ZN3SPK6SystemC2Ev @262
    _ZN3SPK6SystemD0Ev @263
    _ZN3SPK6SystemD1Ev @264
    _ZN3SPK6Vortex11setPositionERKNS_8Vector3DE @265
    _ZN3SPK6Vortex12setDirectionERKNS_8Vector3DE @266
    _ZN3SPK6Vortex20innerUpdateTransformEv @267
    _ZN3SPK6VortexC1ERKNS_8Vector3DES3_ff @268
    _ZN3SPK6VortexC2ERKNS_8Vector3DES3_ff @269
    _ZN3SPK7Emitter10changeFlowEf @270
    _ZN3SPK7Emitter10changeTankEi @271
    _ZN3SPK7Emitter10findByNameERKSs @272
    _ZN3SPK7Emitter12copyChildrenERKS0_b @273
    _ZN3SPK7Emitter12updateNumberEf @274
    _ZN3SPK7Emitter15destroyChildrenEb @275
    _ZN3SPK7Emitter16registerChildrenEb @276
    _ZN3SPK7Emitter24propagateUpdateTransformEv @277
    _ZN3SPK7Emitter7setZoneEPNS_4ZoneEb @278
    _ZN3SPK7EmitterC1Ev @279
    _ZN3SPK7EmitterC2Ev @280
    _ZN3SPK7EmitterD0Ev @281
    _ZN3SPK7EmitterD1Ev @282
    _ZN3SPK7EmitterD2Ev @283
    _ZN3SPK7NO_NAMEE @284 DATA
    _ZN3SPK7getDistERKNS_8Vector3DES2_ @285
    _ZN3SPK8Modifier10endProcessERNS_5GroupE @286
    _ZN3SPK8Modifier10findByNameERKSs @287
    _ZN3SPK8Modifier10setTriggerENS_15ModifierTriggerE @288
    _ZN3SPK8Modifier12beginProcessERNS_5GroupE @289
    _ZN3SPK8Modifier12copyChildrenERKS0_b @290
    _ZN3SPK8Modifier12intersectionE @291 DATA
    _ZN3SPK8Modifier15destroyChildrenEb @292
    _ZN3SPK8Modifier16registerChildrenEb @293
    _ZN3SPK8Modifier24propagateUpdateTransformEv @294
    _ZN3SPK8Modifier6normalE @295 DATA
    _ZN3SPK8Modifier7setZoneEPNS_4ZoneEb @296
    _ZN3SPK8ModifierC1EiNS_15ModifierTriggerEbbPNS_4ZoneE @297
    _ZN3SPK8ModifierC2EiNS_15ModifierTriggerEbbPNS_4ZoneE @298
    _ZN3SPK8ModifierD0Ev @299
    _ZN3SPK8ModifierD1Ev @300
    _ZN3SPK8ModifierD2Ev @301
    _ZN3SPK8ObstacleC1EPNS_4ZoneENS_15ModifierTriggerEff @302
    _ZN3SPK8ObstacleC2EPNS_4ZoneENS_15ModifierTriggerEff @303
    _ZN3SPK8Particle11oldPositionEv @304
    _ZN3SPK8Particle14computeSqrDistEv @305
    _ZN3SPK8Particle18setParamFinalValueENS_10ModelParamEf @306
    _ZN3SPK8Particle20setParamCurrentValueENS_10ModelParamEf @307
    _ZN3SPK8Particle21changeParamFinalValueENS_10ModelParamEf @308
    _ZN3SPK8Particle21interpolateParametersEv @309
    _ZN3SPK8Particle23changeParamCurrentValueENS_10ModelParamEf @310
    _ZN3SPK8Particle4initEv @311
    _ZN3SPK8Particle4killEv @312
    _ZN3SPK8Particle6updateEf @313
    _ZN3SPK8Particle8positionEv @314
    _ZN3SPK8Particle8velocityEv @315
    _ZN3SPK8ParticleC1EPNS_5GroupEj @316
    _ZN3SPK8ParticleC2EPNS_5GroupEj @317
    _ZN3SPK8Renderer19enableRenderingHintENS_13RenderingHintEb @318
    _ZN3SPK8Renderer21setAlphaTestThresholdEf @319
    _ZN3SPK8RendererC1Ev @320
    _ZN3SPK8RendererC2Ev @321
    _ZN3SPK8RendererD0Ev @322
    _ZN3SPK8RendererD1Ev @323
    _ZN3SPK8RendererD2Ev @324
    _ZN3SPK8Vector3D12crossProductERKS0_ @325
    _ZN3SPK8Vector3D3absEv @326
    _ZN3SPK8Vector3D3setEfff @327
    _ZN3SPK8Vector3D6revertEv @328
    _ZN3SPK8Vector3D9normalizeEv @329
    _ZN3SPK8Vector3DC1Efff @330
    _ZN3SPK8Vector3DC2Efff @331
    _ZN3SPK8Vector3DdVEf @332
    _ZN3SPK8Vector3DixEj @333
    _ZN3SPK8Vector3DmIERKS0_ @334
    _ZN3SPK8Vector3DmIEf @335
    _ZN3SPK8Vector3DmLEf @336
    _ZN3SPK8Vector3DpLERKS0_ @337
    _ZN3SPK8Vector3DpLEf @338
    _ZN3SPK9Collision13setElasticityEf @339
    _ZN3SPK9CollisionC1Eff @340
    _ZN3SPK9CollisionC2Eff @341
    _ZN3SPK9DestroyerC1EPNS_4ZoneENS_15ModifierTriggerE @342
    _ZN3SPK9DestroyerC2EPNS_4ZoneENS_15ModifierTriggerE @343
    _ZN3SPK9PointMass14setMinDistanceEf @344
    _ZN3SPK9PointMass20innerUpdateTransformEv @345
    _ZN3SPK9PointMassC1EPNS_4ZoneENS_15ModifierTriggerEff @346
    _ZN3SPK9PointMassC2EPNS_4ZoneENS_15ModifierTriggerEff @347
    _ZNK3SPK10SPKFactory12getNbObjectsEv @348
    _ZNK3SPK11LinearForce12getClassNameEv @349
    _ZNK3SPK11LinearForce5cloneEb @350
    _ZNK3SPK11LinearForce6modifyERNS_8ParticleEf @351
    _ZNK3SPK12Interpolator11computeXAgeERKNS_8ParticleE @352
    _ZNK3SPK12Interpolator13computeXParamERKNS_8ParticleE @353
    _ZNK3SPK12Interpolator16computeXLifeTimeERKNS_8ParticleE @354
    _ZNK3SPK12Interpolator16computeXVelocityERKNS_8ParticleE @355
    _ZNK3SPK12Interpolator18getScaleXVariationEv @356
    _ZNK3SPK12Interpolator19getOffsetXVariationEv @357
    _ZNK3SPK12Registerable12isRegisteredEv @358
    _ZNK3SPK12Registerable13isDestroyableEv @359
    _ZNK3SPK12Registerable15getNbReferencesEv @360
    _ZNK3SPK12Registerable5getIDEv @361
    _ZNK3SPK12Registerable7getNameEv @362
    _ZNK3SPK12Registerable8isSharedEv @363
    _ZNK3SPK13ModifierGroup12getClassNameEv @364
    _ZNK3SPK13ModifierGroup15modifyWrongSideERNS_8ParticleEb @365
    _ZNK3SPK13ModifierGroup5cloneEb @366
    _ZNK3SPK13ModifierGroup6modifyERNS_8ParticleEf @367
    _ZNK3SPK13NormalEmitter12getClassNameEv @368
    _ZNK3SPK13NormalEmitter16generateVelocityERNS_8ParticleEf @369
    _ZNK3SPK13NormalEmitter5cloneEb @370
    _ZNK3SPK13RandomEmitter12getClassNameEv @371
    _ZNK3SPK13RandomEmitter16generateVelocityERNS_8ParticleEf @372
    _ZNK3SPK13RandomEmitter5cloneEb @373
    _ZNK3SPK13Transformable15isLocalIdentityEv @374
    _ZNK3SPK13Transformable16isUpdateNotifiedEv @375
    _ZNK3SPK14SphericEmitter12getClassNameEv @376
    _ZNK3SPK14SphericEmitter16generateVelocityERNS_8ParticleEf @377
    _ZNK3SPK14SphericEmitter5cloneEb @378
    _ZNK3SPK15StraightEmitter12getClassNameEv @379
    _ZNK3SPK15StraightEmitter16generateVelocityERNS_8ParticleEf @380
    _ZNK3SPK15StraightEmitter5cloneEb @381
    _ZNK3SPK4Line10intersectsERKNS_8Vector3DES3_PS1_S4_ @382
    _ZNK3SPK4Line12getClassNameEv @383
    _ZNK3SPK4Line12moveAtBorderERNS_8Vector3DEb @384
    _ZNK3SPK4Line13computeNormalERKNS_8Vector3DE @385
    _ZNK3SPK4Line16generatePositionERNS_8ParticleEb @386
    _ZNK3SPK4Line5cloneEb @387
    _ZNK3SPK4Line8containsERKNS_8Vector3DE @388
    _ZNK3SPK4Ring10intersectsERKNS_8Vector3DES3_PS1_S4_ @389
    _ZNK3SPK4Ring12getClassNameEv @390
    _ZNK3SPK4Ring12moveAtBorderERNS_8Vector3DEb @391
    _ZNK3SPK4Ring13computeNormalERKNS_8Vector3DE @392
    _ZNK3SPK4Ring16generatePositionERNS_8ParticleEb @393
    _ZNK3SPK4Ring5cloneEb @394
    _ZNK3SPK4Ring8containsERKNS_8Vector3DE @395
    _ZNK3SPK4Zone11getPositionEv @396
    _ZNK3SPK4Zone22getTransformedPositionEv @397
    _ZNK3SPK5AABox10intersectsERKNS_8Vector3DES3_PS1_S4_ @398
    _ZNK3SPK5AABox12getClassNameEv @399
    _ZNK3SPK5AABox12moveAtBorderERNS_8Vector3DEb @400
    _ZNK3SPK5AABox13computeNormalERKNS_8Vector3DE @401
    _ZNK3SPK5AABox14slabIntersectsEffffRfS1_Rii @402
    _ZNK3SPK5AABox16generatePositionERNS_8ParticleEb @403
    _ZNK3SPK5AABox5cloneEb @404
    _ZNK3SPK5AABox8containsERKNS_8Vector3DE @405
    _ZNK3SPK5Group10getAABBMaxEv @406
    _ZNK3SPK5Group10getAABBMinEv @407
    _ZNK3SPK5Group10getGravityEv @408
    _ZNK3SPK5Group11getFrictionEv @409
    _ZNK3SPK5Group12createBufferERKSsRKNS_13BufferCreatorEjb @410
    _ZNK3SPK5Group12getClassNameEv @411
    _ZNK3SPK5Group13destroyBufferERKSs @412
    _ZNK3SPK5Group14getNbParticlesEv @413
    _ZNK3SPK5Group14getParamStrideEv @414
    _ZNK3SPK5Group15getParamAddressENS_10ModelParamE @415
    _ZNK3SPK5Group17destroyAllBuffersEv @416
    _ZNK3SPK5Group22isAABBComputingEnabledEv @417
    _ZNK3SPK5Group5cloneEb @418
    _ZNK3SPK5Group8getModelEv @419
    _ZNK3SPK5Group9getBufferERKSs @420
    _ZNK3SPK5Group9getBufferERKSsj @421
    _ZNK3SPK5Model11getNbValuesENS_10ModelParamE @422
    _ZNK3SPK5Model12getClassNameEv @423
    _ZNK3SPK5Model13getParamValueENS_10ModelParamEj @424
    _ZNK3SPK5Model14isInterpolatedENS_10ModelParamE @425
    _ZNK3SPK5Model18getParameterOffsetENS_10ModelParamE @426
    _ZNK3SPK5Model29getSizeOfParticleCurrentArrayEv @427
    _ZNK3SPK5Model30getSizeOfParticleExtendedArrayEv @428
    _ZNK3SPK5Model5cloneEb @429
    _ZNK3SPK5Model8isRandomENS_10ModelParamE @430
    _ZNK3SPK5Model9isEnabledENS_10ModelParamE @431
    _ZNK3SPK5Model9isMutableENS_10ModelParamE @432
    _ZNK3SPK5Plane10intersectsERKNS_8Vector3DES3_PS1_S4_ @433
    _ZNK3SPK5Plane12getClassNameEv @434
    _ZNK3SPK5Plane12moveAtBorderERNS_8Vector3DEb @435
    _ZNK3SPK5Plane13computeNormalERKNS_8Vector3DE @436
    _ZNK3SPK5Plane16generatePositionERNS_8ParticleEb @437
    _ZNK3SPK5Plane5cloneEb @438
    _ZNK3SPK5Plane8containsERKNS_8Vector3DE @439
    _ZNK3SPK5Point10intersectsERKNS_8Vector3DES3_PS1_S4_ @440
    _ZNK3SPK5Point12getClassNameEv @441
    _ZNK3SPK5Point12moveAtBorderERNS_8Vector3DEb @442
    _ZNK3SPK5Point13computeNormalERKNS_8Vector3DE @443
    _ZNK3SPK5Point16generatePositionERNS_8ParticleEb @444
    _ZNK3SPK5Point5cloneEb @445
    _ZNK3SPK5Point8containsERKNS_8Vector3DE @446
    _ZNK3SPK6Sphere10intersectsERKNS_8Vector3DES3_PS1_S4_ @447
    _ZNK3SPK6Sphere12getClassNameEv @448
    _ZNK3SPK6Sphere12moveAtBorderERNS_8Vector3DEb @449
    _ZNK3SPK6Sphere13computeNormalERKNS_8Vector3DE @450
    _ZNK3SPK6Sphere16generatePositionERNS_8ParticleEb @451
    _ZNK3SPK6Sphere5cloneEb @452
    _ZNK3SPK6Sphere8containsERKNS_8Vector3DE @453
    _ZNK3SPK6System12getClassNameEv @454
    _ZNK3SPK6System5cloneEb @455
    _ZNK3SPK6System6renderEv @456
    _ZNK3SPK6Vortex12getClassNameEv @457
    _ZNK3SPK6Vortex5cloneEb @458
    _ZNK3SPK6Vortex6modifyERNS_8ParticleEf @459
    _ZNK3SPK7Emitter10isFullZoneEv @460
    _ZNK3SPK7Emitter10isSleepingEv @461
    _ZNK3SPK7Emitter16generateVelocityERNS_8ParticleE @462
    _ZNK3SPK7Emitter4emitERNS_8ParticleE @463
    _ZNK3SPK7Emitter7getZoneEv @464
    _ZNK3SPK7Emitter8isActiveEv @465
    _ZNK3SPK8Modifier10getTriggerEv @466
    _ZNK3SPK8Modifier10isFullZoneEv @467
    _ZNK3SPK8Modifier15isLocalToSystemEv @468
    _ZNK3SPK8Modifier15modifyWrongSideERNS_8ParticleEb @469
    _ZNK3SPK8Modifier7getZoneEv @470
    _ZNK3SPK8Modifier7processERNS_8ParticleEf @471
    _ZNK3SPK8Modifier8isActiveEv @472
    _ZNK3SPK8Obstacle12getClassNameEv @473
    _ZNK3SPK8Obstacle15modifyWrongSideERNS_8ParticleEb @474
    _ZNK3SPK8Obstacle5cloneEb @475
    _ZNK3SPK8Obstacle6modifyERNS_8ParticleEf @476
    _ZNK3SPK8Particle11getLifeLeftEv @477
    _ZNK3SPK8Particle18getParamFinalValueENS_10ModelParamE @478
    _ZNK3SPK8Particle20getParamCurrentValueENS_10ModelParamE @479
    _ZNK3SPK8Particle6getAgeEv @480
    _ZNK3SPK8Particle8getGroupEv @481
    _ZNK3SPK8Particle8getIndexEv @482
    _ZNK3SPK8Particle8getModelEv @483
    _ZNK3SPK8Particle8positionEv @484
    _ZNK3SPK8Particle8velocityEv @485
    _ZNK3SPK8Renderer22isRenderingHintEnabledENS_13RenderingHintE @486
    _ZNK3SPK8Renderer8isActiveEv @487
    _ZNK3SPK8Vector3D10getSqrNormEv @488
    _ZNK3SPK8Vector3D7getNormEv @489
    _ZNK3SPK8Vector3DixEj @490
    _ZNK3SPK9Collision12getClassNameEv @491
    _ZNK3SPK9Collision5cloneEb @492
    _ZNK3SPK9Collision6modifyERNS_8ParticleEf @493
    _ZNK3SPK9Destroyer12getClassNameEv @494
    _ZNK3SPK9Destroyer15modifyWrongSideERNS_8ParticleEb @495
    _ZNK3SPK9Destroyer5cloneEb @496
    _ZNK3SPK9Destroyer6modifyERNS_8ParticleEf @497
    _ZNK3SPK9PointMass12getClassNameEv @498
    _ZNK3SPK9PointMass5cloneEb @499
    _ZNK3SPK9PointMass6modifyERNS_8ParticleEf @500
    _ZTVN3SPK11LinearForceE @501 DATA
    _ZTVN3SPK12RegisterableE @502 DATA
    _ZTVN3SPK13BufferHandlerE @503 DATA
    _ZTVN3SPK13ModifierGroupE @504 DATA
    _ZTVN3SPK13NormalEmitterE @505 DATA
    _ZTVN3SPK13RandomEmitterE @506 DATA
    _ZTVN3SPK13TransformableE @507 DATA
    _ZTVN3SPK14SphericEmitterE @508 DATA
    _ZTVN3SPK15StraightEmitterE @509 DATA
    _ZTVN3SPK21QuadRendererInterfaceE @510 DATA
    _ZTVN3SPK27Oriented3DRendererInterfaceE @511 DATA
    _ZTVN3SPK4LineE @512 DATA
    _ZTVN3SPK4RingE @513 DATA
    _ZTVN3SPK4ZoneE @514 DATA
    _ZTVN3SPK5AABoxE @515 DATA
    _ZTVN3SPK5GroupE @516 DATA
    _ZTVN3SPK5ModelE @517 DATA
    _ZTVN3SPK5PlaneE @518 DATA
    _ZTVN3SPK5PointE @519 DATA
    _ZTVN3SPK6SphereE @520 DATA
    _ZTVN3SPK6SystemE @521 DATA
    _ZTVN3SPK6VortexE @522 DATA
    _ZTVN3SPK7EmitterE @523 DATA
    _ZTVN3SPK8ModifierE @524 DATA
    _ZTVN3SPK8ObstacleE @525 DATA
    _ZTVN3SPK8RendererE @526 DATA
    _ZTVN3SPK9CollisionE @527 DATA
    _ZTVN3SPK9DestroyerE @528 DATA
    _ZTVN3SPK9PointMassE @529 DATA
    _ZThn172_N3SPK11LinearForceD0Ev @530
    _ZThn172_N3SPK11LinearForceD1Ev @531
    _ZThn172_N3SPK13ModifierGroup12checkBuffersERKNS_5GroupE @532
    _ZThn172_N3SPK13ModifierGroup13createBuffersERKNS_5GroupE @533
    _ZThn172_N3SPK13ModifierGroup14destroyBuffersERKNS_5GroupE @534
    _ZThn172_N3SPK13ModifierGroupD0Ev @535
    _ZThn172_N3SPK13ModifierGroupD1Ev @536
    _ZThn172_N3SPK6VortexD0Ev @537
    _ZThn172_N3SPK6VortexD1Ev @538
    _ZThn172_N3SPK8ModifierD0Ev @539
    _ZThn172_N3SPK8ModifierD1Ev @540
    _ZThn172_N3SPK8ObstacleD0Ev @541
    _ZThn172_N3SPK8ObstacleD1Ev @542
    _ZThn172_N3SPK9CollisionD0Ev @543
    _ZThn172_N3SPK9CollisionD1Ev @544
    _ZThn172_N3SPK9DestroyerD0Ev @545
    _ZThn172_N3SPK9DestroyerD1Ev @546
    _ZThn172_N3SPK9PointMassD0Ev @547
    _ZThn172_N3SPK9PointMassD1Ev @548
    _ZThn20_N3SPK11LinearForce20innerUpdateTransformEv @549
    _ZThn20_N3SPK11LinearForceD0Ev @550
    _ZThn20_N3SPK11LinearForceD1Ev @551
    _ZThn20_N3SPK13ModifierGroupD0Ev @552
    _ZThn20_N3SPK13ModifierGroupD1Ev @553
    _ZThn20_N3SPK13NormalEmitterD0Ev @554
    _ZThn20_N3SPK13NormalEmitterD1Ev @555
    _ZThn20_N3SPK13RandomEmitterD0Ev @556
    _ZThn20_N3SPK13RandomEmitterD1Ev @557
    _ZThn20_N3SPK14SphericEmitter20innerUpdateTransformEv @558
    _ZThn20_N3SPK14SphericEmitterD0Ev @559
    _ZThn20_N3SPK14SphericEmitterD1Ev @560
    _ZThn20_N3SPK15StraightEmitter20innerUpdateTransformEv @561
    _ZThn20_N3SPK15StraightEmitterD0Ev @562
    _ZThn20_N3SPK15StraightEmitterD1Ev @563
    _ZThn20_N3SPK4Line20innerUpdateTransformEv @564
    _ZThn20_N3SPK4LineD0Ev @565
    _ZThn20_N3SPK4LineD1Ev @566
    _ZThn20_N3SPK4Ring20innerUpdateTransformEv @567
    _ZThn20_N3SPK4RingD0Ev @568
    _ZThn20_N3SPK4RingD1Ev @569
    _ZThn20_N3SPK4Zone20innerUpdateTransformEv @570
    _ZThn20_N3SPK4ZoneD0Ev @571
    _ZThn20_N3SPK4ZoneD1Ev @572
    _ZThn20_N3SPK5AABoxD0Ev @573
    _ZThn20_N3SPK5AABoxD1Ev @574
    _ZThn20_N3SPK5Group24propagateUpdateTransformEv @575
    _ZThn20_N3SPK5GroupD0Ev @576
    _ZThn20_N3SPK5GroupD1Ev @577
    _ZThn20_N3SPK5Plane20innerUpdateTransformEv @578
    _ZThn20_N3SPK5PlaneD0Ev @579
    _ZThn20_N3SPK5PlaneD1Ev @580
    _ZThn20_N3SPK5PointD0Ev @581
    _ZThn20_N3SPK5PointD1Ev @582
    _ZThn20_N3SPK6SphereD0Ev @583
    _ZThn20_N3SPK6SphereD1Ev @584
    _ZThn20_N3SPK6System24propagateUpdateTransformEv @585
    _ZThn20_N3SPK6SystemD0Ev @586
    _ZThn20_N3SPK6SystemD1Ev @587
    _ZThn20_N3SPK6Vortex20innerUpdateTransformEv @588
    _ZThn20_N3SPK6VortexD0Ev @589
    _ZThn20_N3SPK6VortexD1Ev @590
    _ZThn20_N3SPK7Emitter24propagateUpdateTransformEv @591
    _ZThn20_N3SPK7EmitterD0Ev @592
    _ZThn20_N3SPK7EmitterD1Ev @593
    _ZThn20_N3SPK8Modifier24propagateUpdateTransformEv @594
    _ZThn20_N3SPK8ModifierD0Ev @595
    _ZThn20_N3SPK8ModifierD1Ev @596
    _ZThn20_N3SPK8ObstacleD0Ev @597
    _ZThn20_N3SPK8ObstacleD1Ev @598
    _ZThn20_N3SPK8RendererD0Ev @599
    _ZThn20_N3SPK8RendererD1Ev @600
    _ZThn20_N3SPK9CollisionD0Ev @601
    _ZThn20_N3SPK9CollisionD1Ev @602
    _ZThn20_N3SPK9DestroyerD0Ev @603
    _ZThn20_N3SPK9DestroyerD1Ev @604
    _ZThn20_N3SPK9PointMass20innerUpdateTransformEv @605
    _ZThn20_N3SPK9PointMassD0Ev @606
    _ZThn20_N3SPK9PointMassD1Ev @607
